
Discarded input sections

 .text          0x0000000000000000        0x0 build/asm/header.s.o
 .bss           0x0000000000000000        0x0 build/asm/header.s.o
 .reginfo       0x0000000000000000       0x18 build/asm/header.s.o
 .MIPS.abiflags
                0x0000000000000000       0x18 build/asm/header.s.o
 .pdr           0x0000000000000000        0x0 build/asm/header.s.o
 .gnu.attributes
                0x0000000000000000       0x10 build/asm/header.s.o
 .options       0x0000000000000000       0x20 build/src/1000.c.o
 .reginfo       0x0000000000000000       0x18 build/src/1000.c.o
 .mdebug        0x0000000000000000     0xe234 build/src/1000.c.o
 .options       0x0000000000000000       0x20 build/src/1130.c.o
 .reginfo       0x0000000000000000       0x18 build/src/1130.c.o
 .mdebug        0x0000000000000000     0xe9f0 build/src/1130.c.o
 .reginfo       0x0000000000000000       0x18 build/asm/1870.s.o
 .MIPS.abiflags
                0x0000000000000000       0x18 build/asm/1870.s.o
 .pdr           0x0000000000000000        0x0 build/asm/1870.s.o
 .gnu.attributes
                0x0000000000000000       0x10 build/asm/1870.s.o
 .reginfo       0x0000000000000000       0x18 build/asm/3B40.s.o
 .MIPS.abiflags
                0x0000000000000000       0x18 build/asm/3B40.s.o
 .pdr           0x0000000000000000        0x0 build/asm/3B40.s.o
 .gnu.attributes
                0x0000000000000000       0x10 build/asm/3B40.s.o
 .reginfo       0x0000000000000000       0x18 build/asm/3F50.s.o
 .MIPS.abiflags
                0x0000000000000000       0x18 build/asm/3F50.s.o
 .pdr           0x0000000000000000        0x0 build/asm/3F50.s.o
 .gnu.attributes
                0x0000000000000000       0x10 build/asm/3F50.s.o
 .reginfo       0x0000000000000000       0x18 build/asm/9D50.s.o
 .MIPS.abiflags
                0x0000000000000000       0x18 build/asm/9D50.s.o
 .pdr           0x0000000000000000        0x0 build/asm/9D50.s.o
 .gnu.attributes
                0x0000000000000000       0x10 build/asm/9D50.s.o
 .reginfo       0x0000000000000000       0x18 build/asm/DAE0.s.o
 .MIPS.abiflags
                0x0000000000000000       0x18 build/asm/DAE0.s.o
 .pdr           0x0000000000000000        0x0 build/asm/DAE0.s.o
 .gnu.attributes
                0x0000000000000000       0x10 build/asm/DAE0.s.o
 .reginfo       0x0000000000000000       0x18 build/asm/E2A0.s.o
 .MIPS.abiflags
                0x0000000000000000       0x18 build/asm/E2A0.s.o
 .pdr           0x0000000000000000        0x0 build/asm/E2A0.s.o
 .gnu.attributes
                0x0000000000000000       0x10 build/asm/E2A0.s.o
 .reginfo       0x0000000000000000       0x18 build/asm/113F0.s.o
 .MIPS.abiflags
                0x0000000000000000       0x18 build/asm/113F0.s.o
 .pdr           0x0000000000000000        0x0 build/asm/113F0.s.o
 .gnu.attributes
                0x0000000000000000       0x10 build/asm/113F0.s.o
 .reginfo       0x0000000000000000       0x18 build/asm/13DE0.s.o
 .MIPS.abiflags
                0x0000000000000000       0x18 build/asm/13DE0.s.o
 .pdr           0x0000000000000000        0x0 build/asm/13DE0.s.o
 .gnu.attributes
                0x0000000000000000       0x10 build/asm/13DE0.s.o
 .reginfo       0x0000000000000000       0x18 build/asm/140D0.s.o
 .MIPS.abiflags
                0x0000000000000000       0x18 build/asm/140D0.s.o
 .pdr           0x0000000000000000        0x0 build/asm/140D0.s.o
 .gnu.attributes
                0x0000000000000000       0x10 build/asm/140D0.s.o
 .reginfo       0x0000000000000000       0x18 build/asm/15150.s.o
 .MIPS.abiflags
                0x0000000000000000       0x18 build/asm/15150.s.o
 .pdr           0x0000000000000000        0x0 build/asm/15150.s.o
 .gnu.attributes
                0x0000000000000000       0x10 build/asm/15150.s.o
 .reginfo       0x0000000000000000       0x18 build/asm/17360.s.o
 .MIPS.abiflags
                0x0000000000000000       0x18 build/asm/17360.s.o
 .pdr           0x0000000000000000        0x0 build/asm/17360.s.o
 .gnu.attributes
                0x0000000000000000       0x10 build/asm/17360.s.o
 .reginfo       0x0000000000000000       0x18 build/asm/1B200.s.o
 .MIPS.abiflags
                0x0000000000000000       0x18 build/asm/1B200.s.o
 .pdr           0x0000000000000000        0x0 build/asm/1B200.s.o
 .gnu.attributes
                0x0000000000000000       0x10 build/asm/1B200.s.o
 .reginfo       0x0000000000000000       0x18 build/asm/1E570.s.o
 .MIPS.abiflags
                0x0000000000000000       0x18 build/asm/1E570.s.o
 .pdr           0x0000000000000000        0x0 build/asm/1E570.s.o
 .gnu.attributes
                0x0000000000000000       0x10 build/asm/1E570.s.o
 .reginfo       0x0000000000000000       0x18 build/asm/1FA00.s.o
 .MIPS.abiflags
                0x0000000000000000       0x18 build/asm/1FA00.s.o
 .pdr           0x0000000000000000        0x0 build/asm/1FA00.s.o
 .gnu.attributes
                0x0000000000000000       0x10 build/asm/1FA00.s.o
 .reginfo       0x0000000000000000       0x18 build/asm/20DA0.s.o
 .MIPS.abiflags
                0x0000000000000000       0x18 build/asm/20DA0.s.o
 .pdr           0x0000000000000000        0x0 build/asm/20DA0.s.o
 .gnu.attributes
                0x0000000000000000       0x10 build/asm/20DA0.s.o
 .reginfo       0x0000000000000000       0x18 build/asm/216E0.s.o
 .MIPS.abiflags
                0x0000000000000000       0x18 build/asm/216E0.s.o
 .pdr           0x0000000000000000        0x0 build/asm/216E0.s.o
 .gnu.attributes
                0x0000000000000000       0x10 build/asm/216E0.s.o
 .reginfo       0x0000000000000000       0x18 build/asm/272D0.s.o
 .MIPS.abiflags
                0x0000000000000000       0x18 build/asm/272D0.s.o
 .pdr           0x0000000000000000        0x0 build/asm/272D0.s.o
 .gnu.attributes
                0x0000000000000000       0x10 build/asm/272D0.s.o
 .reginfo       0x0000000000000000       0x18 build/asm/27600.s.o
 .MIPS.abiflags
                0x0000000000000000       0x18 build/asm/27600.s.o
 .pdr           0x0000000000000000        0x0 build/asm/27600.s.o
 .gnu.attributes
                0x0000000000000000       0x10 build/asm/27600.s.o
 .reginfo       0x0000000000000000       0x18 build/asm/27A90.s.o
 .MIPS.abiflags
                0x0000000000000000       0x18 build/asm/27A90.s.o
 .pdr           0x0000000000000000        0x0 build/asm/27A90.s.o
 .gnu.attributes
                0x0000000000000000       0x10 build/asm/27A90.s.o
 .reginfo       0x0000000000000000       0x18 build/asm/28D20.s.o
 .MIPS.abiflags
                0x0000000000000000       0x18 build/asm/28D20.s.o
 .pdr           0x0000000000000000        0x0 build/asm/28D20.s.o
 .gnu.attributes
                0x0000000000000000       0x10 build/asm/28D20.s.o
 .reginfo       0x0000000000000000       0x18 build/asm/29150.s.o
 .MIPS.abiflags
                0x0000000000000000       0x18 build/asm/29150.s.o
 .pdr           0x0000000000000000        0x0 build/asm/29150.s.o
 .gnu.attributes
                0x0000000000000000       0x10 build/asm/29150.s.o
 .reginfo       0x0000000000000000       0x18 build/asm/2B0F0.s.o
 .MIPS.abiflags
                0x0000000000000000       0x18 build/asm/2B0F0.s.o
 .pdr           0x0000000000000000        0x0 build/asm/2B0F0.s.o
 .gnu.attributes
                0x0000000000000000       0x10 build/asm/2B0F0.s.o
 .reginfo       0x0000000000000000       0x18 build/asm/337B0.s.o
 .MIPS.abiflags
                0x0000000000000000       0x18 build/asm/337B0.s.o
 .pdr           0x0000000000000000        0x0 build/asm/337B0.s.o
 .gnu.attributes
                0x0000000000000000       0x10 build/asm/337B0.s.o
 .reginfo       0x0000000000000000       0x18 build/asm/35EC0.s.o
 .MIPS.abiflags
                0x0000000000000000       0x18 build/asm/35EC0.s.o
 .pdr           0x0000000000000000        0x0 build/asm/35EC0.s.o
 .gnu.attributes
                0x0000000000000000       0x10 build/asm/35EC0.s.o
 .reginfo       0x0000000000000000       0x18 build/asm/363B0.s.o
 .MIPS.abiflags
                0x0000000000000000       0x18 build/asm/363B0.s.o
 .pdr           0x0000000000000000        0x0 build/asm/363B0.s.o
 .gnu.attributes
                0x0000000000000000       0x10 build/asm/363B0.s.o
 .reginfo       0x0000000000000000       0x18 build/asm/36DB0.s.o
 .MIPS.abiflags
                0x0000000000000000       0x18 build/asm/36DB0.s.o
 .pdr           0x0000000000000000        0x0 build/asm/36DB0.s.o
 .gnu.attributes
                0x0000000000000000       0x10 build/asm/36DB0.s.o
 .reginfo       0x0000000000000000       0x18 build/asm/36E60.s.o
 .MIPS.abiflags
                0x0000000000000000       0x18 build/asm/36E60.s.o
 .pdr           0x0000000000000000        0x0 build/asm/36E60.s.o
 .gnu.attributes
                0x0000000000000000       0x10 build/asm/36E60.s.o
 .reginfo       0x0000000000000000       0x18 build/asm/376C0.s.o
 .MIPS.abiflags
                0x0000000000000000       0x18 build/asm/376C0.s.o
 .pdr           0x0000000000000000        0x0 build/asm/376C0.s.o
 .gnu.attributes
                0x0000000000000000       0x10 build/asm/376C0.s.o
 .reginfo       0x0000000000000000       0x18 build/asm/37980.s.o
 .MIPS.abiflags
                0x0000000000000000       0x18 build/asm/37980.s.o
 .pdr           0x0000000000000000        0x0 build/asm/37980.s.o
 .gnu.attributes
                0x0000000000000000       0x10 build/asm/37980.s.o
 .reginfo       0x0000000000000000       0x18 build/asm/37AD0.s.o
 .MIPS.abiflags
                0x0000000000000000       0x18 build/asm/37AD0.s.o
 .pdr           0x0000000000000000        0x0 build/asm/37AD0.s.o
 .gnu.attributes
                0x0000000000000000       0x10 build/asm/37AD0.s.o
 .reginfo       0x0000000000000000       0x18 build/asm/37E40.s.o
 .MIPS.abiflags
                0x0000000000000000       0x18 build/asm/37E40.s.o
 .pdr           0x0000000000000000        0x0 build/asm/37E40.s.o
 .gnu.attributes
                0x0000000000000000       0x10 build/asm/37E40.s.o
 .reginfo       0x0000000000000000       0x18 build/asm/37EB0.s.o
 .MIPS.abiflags
                0x0000000000000000       0x18 build/asm/37EB0.s.o
 .pdr           0x0000000000000000        0x0 build/asm/37EB0.s.o
 .gnu.attributes
                0x0000000000000000       0x10 build/asm/37EB0.s.o
 .reginfo       0x0000000000000000       0x18 build/asm/37F20.s.o
 .MIPS.abiflags
                0x0000000000000000       0x18 build/asm/37F20.s.o
 .pdr           0x0000000000000000        0x0 build/asm/37F20.s.o
 .gnu.attributes
                0x0000000000000000       0x10 build/asm/37F20.s.o
 .reginfo       0x0000000000000000       0x18 build/asm/38060.s.o
 .MIPS.abiflags
                0x0000000000000000       0x18 build/asm/38060.s.o
 .pdr           0x0000000000000000        0x0 build/asm/38060.s.o
 .gnu.attributes
                0x0000000000000000       0x10 build/asm/38060.s.o
 .reginfo       0x0000000000000000       0x18 build/asm/382C0.s.o
 .MIPS.abiflags
                0x0000000000000000       0x18 build/asm/382C0.s.o
 .pdr           0x0000000000000000        0x0 build/asm/382C0.s.o
 .gnu.attributes
                0x0000000000000000       0x10 build/asm/382C0.s.o
 .reginfo       0x0000000000000000       0x18 build/asm/382F0.s.o
 .MIPS.abiflags
                0x0000000000000000       0x18 build/asm/382F0.s.o
 .pdr           0x0000000000000000        0x0 build/asm/382F0.s.o
 .gnu.attributes
                0x0000000000000000       0x10 build/asm/382F0.s.o
 .reginfo       0x0000000000000000       0x18 build/asm/38680.s.o
 .MIPS.abiflags
                0x0000000000000000       0x18 build/asm/38680.s.o
 .pdr           0x0000000000000000        0x0 build/asm/38680.s.o
 .gnu.attributes
                0x0000000000000000       0x10 build/asm/38680.s.o
 .reginfo       0x0000000000000000       0x18 build/asm/38770.s.o
 .MIPS.abiflags
                0x0000000000000000       0x18 build/asm/38770.s.o
 .pdr           0x0000000000000000        0x0 build/asm/38770.s.o
 .gnu.attributes
                0x0000000000000000       0x10 build/asm/38770.s.o
 .reginfo       0x0000000000000000       0x18 build/asm/38A80.s.o
 .MIPS.abiflags
                0x0000000000000000       0x18 build/asm/38A80.s.o
 .pdr           0x0000000000000000        0x0 build/asm/38A80.s.o
 .gnu.attributes
                0x0000000000000000       0x10 build/asm/38A80.s.o
 .reginfo       0x0000000000000000       0x18 build/asm/38AF0.s.o
 .MIPS.abiflags
                0x0000000000000000       0x18 build/asm/38AF0.s.o
 .pdr           0x0000000000000000        0x0 build/asm/38AF0.s.o
 .gnu.attributes
                0x0000000000000000       0x10 build/asm/38AF0.s.o
 .reginfo       0x0000000000000000       0x18 build/asm/38CB0.s.o
 .MIPS.abiflags
                0x0000000000000000       0x18 build/asm/38CB0.s.o
 .pdr           0x0000000000000000        0x0 build/asm/38CB0.s.o
 .gnu.attributes
                0x0000000000000000       0x10 build/asm/38CB0.s.o
 .reginfo       0x0000000000000000       0x18 build/asm/38D30.s.o
 .MIPS.abiflags
                0x0000000000000000       0x18 build/asm/38D30.s.o
 .pdr           0x0000000000000000        0x0 build/asm/38D30.s.o
 .gnu.attributes
                0x0000000000000000       0x10 build/asm/38D30.s.o
 .reginfo       0x0000000000000000       0x18 build/asm/38DB0.s.o
 .MIPS.abiflags
                0x0000000000000000       0x18 build/asm/38DB0.s.o
 .pdr           0x0000000000000000        0x0 build/asm/38DB0.s.o
 .gnu.attributes
                0x0000000000000000       0x10 build/asm/38DB0.s.o
 .reginfo       0x0000000000000000       0x18 build/asm/38E40.s.o
 .MIPS.abiflags
                0x0000000000000000       0x18 build/asm/38E40.s.o
 .pdr           0x0000000000000000        0x0 build/asm/38E40.s.o
 .gnu.attributes
                0x0000000000000000       0x10 build/asm/38E40.s.o
 .reginfo       0x0000000000000000       0x18 build/asm/39110.s.o
 .MIPS.abiflags
                0x0000000000000000       0x18 build/asm/39110.s.o
 .pdr           0x0000000000000000        0x0 build/asm/39110.s.o
 .gnu.attributes
                0x0000000000000000       0x10 build/asm/39110.s.o
 .reginfo       0x0000000000000000       0x18 build/asm/39330.s.o
 .MIPS.abiflags
                0x0000000000000000       0x18 build/asm/39330.s.o
 .pdr           0x0000000000000000        0x0 build/asm/39330.s.o
 .gnu.attributes
                0x0000000000000000       0x10 build/asm/39330.s.o
 .reginfo       0x0000000000000000       0x18 build/asm/39610.s.o
 .MIPS.abiflags
                0x0000000000000000       0x18 build/asm/39610.s.o
 .pdr           0x0000000000000000        0x0 build/asm/39610.s.o
 .gnu.attributes
                0x0000000000000000       0x10 build/asm/39610.s.o
 .reginfo       0x0000000000000000       0x18 build/asm/39820.s.o
 .MIPS.abiflags
                0x0000000000000000       0x18 build/asm/39820.s.o
 .pdr           0x0000000000000000        0x0 build/asm/39820.s.o
 .gnu.attributes
                0x0000000000000000       0x10 build/asm/39820.s.o
 .reginfo       0x0000000000000000       0x18 build/asm/39BA0.s.o
 .MIPS.abiflags
                0x0000000000000000       0x18 build/asm/39BA0.s.o
 .pdr           0x0000000000000000        0x0 build/asm/39BA0.s.o
 .gnu.attributes
                0x0000000000000000       0x10 build/asm/39BA0.s.o
 .reginfo       0x0000000000000000       0x18 build/asm/39E30.s.o
 .MIPS.abiflags
                0x0000000000000000       0x18 build/asm/39E30.s.o
 .pdr           0x0000000000000000        0x0 build/asm/39E30.s.o
 .gnu.attributes
                0x0000000000000000       0x10 build/asm/39E30.s.o
 .reginfo       0x0000000000000000       0x18 build/asm/3A2C0.s.o
 .MIPS.abiflags
                0x0000000000000000       0x18 build/asm/3A2C0.s.o
 .pdr           0x0000000000000000        0x0 build/asm/3A2C0.s.o
 .gnu.attributes
                0x0000000000000000       0x10 build/asm/3A2C0.s.o
 .reginfo       0x0000000000000000       0x18 build/asm/3A360.s.o
 .MIPS.abiflags
                0x0000000000000000       0x18 build/asm/3A360.s.o
 .pdr           0x0000000000000000        0x0 build/asm/3A360.s.o
 .gnu.attributes
                0x0000000000000000       0x10 build/asm/3A360.s.o
 .reginfo       0x0000000000000000       0x18 build/asm/3A4D0.s.o
 .MIPS.abiflags
                0x0000000000000000       0x18 build/asm/3A4D0.s.o
 .pdr           0x0000000000000000        0x0 build/asm/3A4D0.s.o
 .gnu.attributes
                0x0000000000000000       0x10 build/asm/3A4D0.s.o
 .reginfo       0x0000000000000000       0x18 build/asm/3A550.s.o
 .MIPS.abiflags
                0x0000000000000000       0x18 build/asm/3A550.s.o
 .pdr           0x0000000000000000        0x0 build/asm/3A550.s.o
 .gnu.attributes
                0x0000000000000000       0x10 build/asm/3A550.s.o
 .reginfo       0x0000000000000000       0x18 build/asm/3A5D0.s.o
 .MIPS.abiflags
                0x0000000000000000       0x18 build/asm/3A5D0.s.o
 .pdr           0x0000000000000000        0x0 build/asm/3A5D0.s.o
 .gnu.attributes
                0x0000000000000000       0x10 build/asm/3A5D0.s.o
 .reginfo       0x0000000000000000       0x18 build/asm/3A680.s.o
 .MIPS.abiflags
                0x0000000000000000       0x18 build/asm/3A680.s.o
 .pdr           0x0000000000000000        0x0 build/asm/3A680.s.o
 .gnu.attributes
                0x0000000000000000       0x10 build/asm/3A680.s.o
 .reginfo       0x0000000000000000       0x18 build/asm/3A790.s.o
 .MIPS.abiflags
                0x0000000000000000       0x18 build/asm/3A790.s.o
 .pdr           0x0000000000000000        0x0 build/asm/3A790.s.o
 .gnu.attributes
                0x0000000000000000       0x10 build/asm/3A790.s.o
 .reginfo       0x0000000000000000       0x18 build/asm/3A7D0.s.o
 .MIPS.abiflags
                0x0000000000000000       0x18 build/asm/3A7D0.s.o
 .pdr           0x0000000000000000        0x0 build/asm/3A7D0.s.o
 .gnu.attributes
                0x0000000000000000       0x10 build/asm/3A7D0.s.o
 .reginfo       0x0000000000000000       0x18 build/asm/3A830.s.o
 .MIPS.abiflags
                0x0000000000000000       0x18 build/asm/3A830.s.o
 .pdr           0x0000000000000000        0x0 build/asm/3A830.s.o
 .gnu.attributes
                0x0000000000000000       0x10 build/asm/3A830.s.o
 .reginfo       0x0000000000000000       0x18 build/asm/3A980.s.o
 .MIPS.abiflags
                0x0000000000000000       0x18 build/asm/3A980.s.o
 .pdr           0x0000000000000000        0x0 build/asm/3A980.s.o
 .gnu.attributes
                0x0000000000000000       0x10 build/asm/3A980.s.o
 .reginfo       0x0000000000000000       0x18 build/asm/3AA80.s.o
 .MIPS.abiflags
                0x0000000000000000       0x18 build/asm/3AA80.s.o
 .pdr           0x0000000000000000        0x0 build/asm/3AA80.s.o
 .gnu.attributes
                0x0000000000000000       0x10 build/asm/3AA80.s.o
 .reginfo       0x0000000000000000       0x18 build/asm/3B170.s.o
 .MIPS.abiflags
                0x0000000000000000       0x18 build/asm/3B170.s.o
 .pdr           0x0000000000000000        0x0 build/asm/3B170.s.o
 .gnu.attributes
                0x0000000000000000       0x10 build/asm/3B170.s.o
 .reginfo       0x0000000000000000       0x18 build/asm/3B220.s.o
 .MIPS.abiflags
                0x0000000000000000       0x18 build/asm/3B220.s.o
 .pdr           0x0000000000000000        0x0 build/asm/3B220.s.o
 .gnu.attributes
                0x0000000000000000       0x10 build/asm/3B220.s.o
 .reginfo       0x0000000000000000       0x18 build/asm/3B230.s.o
 .MIPS.abiflags
                0x0000000000000000       0x18 build/asm/3B230.s.o
 .pdr           0x0000000000000000        0x0 build/asm/3B230.s.o
 .gnu.attributes
                0x0000000000000000       0x10 build/asm/3B230.s.o
 .reginfo       0x0000000000000000       0x18 build/asm/3C460.s.o
 .MIPS.abiflags
                0x0000000000000000       0x18 build/asm/3C460.s.o
 .pdr           0x0000000000000000        0x0 build/asm/3C460.s.o
 .gnu.attributes
                0x0000000000000000       0x10 build/asm/3C460.s.o
 .reginfo       0x0000000000000000       0x18 build/asm/3C6B0.s.o
 .MIPS.abiflags
                0x0000000000000000       0x18 build/asm/3C6B0.s.o
 .pdr           0x0000000000000000        0x0 build/asm/3C6B0.s.o
 .gnu.attributes
                0x0000000000000000       0x10 build/asm/3C6B0.s.o
 .reginfo       0x0000000000000000       0x18 build/asm/3C6F0.s.o
 .MIPS.abiflags
                0x0000000000000000       0x18 build/asm/3C6F0.s.o
 .pdr           0x0000000000000000        0x0 build/asm/3C6F0.s.o
 .gnu.attributes
                0x0000000000000000       0x10 build/asm/3C6F0.s.o
 .reginfo       0x0000000000000000       0x18 build/asm/3D1B0.s.o
 .MIPS.abiflags
                0x0000000000000000       0x18 build/asm/3D1B0.s.o
 .pdr           0x0000000000000000        0x0 build/asm/3D1B0.s.o
 .gnu.attributes
                0x0000000000000000       0x10 build/asm/3D1B0.s.o
 .reginfo       0x0000000000000000       0x18 build/asm/3D1F0.s.o
 .MIPS.abiflags
                0x0000000000000000       0x18 build/asm/3D1F0.s.o
 .pdr           0x0000000000000000        0x0 build/asm/3D1F0.s.o
 .gnu.attributes
                0x0000000000000000       0x10 build/asm/3D1F0.s.o
 .reginfo       0x0000000000000000       0x18 build/asm/3D280.s.o
 .MIPS.abiflags
                0x0000000000000000       0x18 build/asm/3D280.s.o
 .pdr           0x0000000000000000        0x0 build/asm/3D280.s.o
 .gnu.attributes
                0x0000000000000000       0x10 build/asm/3D280.s.o
 .reginfo       0x0000000000000000       0x18 build/asm/3D2C0.s.o
 .MIPS.abiflags
                0x0000000000000000       0x18 build/asm/3D2C0.s.o
 .pdr           0x0000000000000000        0x0 build/asm/3D2C0.s.o
 .gnu.attributes
                0x0000000000000000       0x10 build/asm/3D2C0.s.o
 .reginfo       0x0000000000000000       0x18 build/asm/3D9D0.s.o
 .MIPS.abiflags
                0x0000000000000000       0x18 build/asm/3D9D0.s.o
 .pdr           0x0000000000000000        0x0 build/asm/3D9D0.s.o
 .gnu.attributes
                0x0000000000000000       0x10 build/asm/3D9D0.s.o
 .reginfo       0x0000000000000000       0x18 build/asm/3DA70.s.o
 .MIPS.abiflags
                0x0000000000000000       0x18 build/asm/3DA70.s.o
 .pdr           0x0000000000000000        0x0 build/asm/3DA70.s.o
 .gnu.attributes
                0x0000000000000000       0x10 build/asm/3DA70.s.o
 .reginfo       0x0000000000000000       0x18 build/asm/3DA90.s.o
 .MIPS.abiflags
                0x0000000000000000       0x18 build/asm/3DA90.s.o
 .pdr           0x0000000000000000        0x0 build/asm/3DA90.s.o
 .gnu.attributes
                0x0000000000000000       0x10 build/asm/3DA90.s.o
 .reginfo       0x0000000000000000       0x18 build/asm/3DB20.s.o
 .MIPS.abiflags
                0x0000000000000000       0x18 build/asm/3DB20.s.o
 .pdr           0x0000000000000000        0x0 build/asm/3DB20.s.o
 .gnu.attributes
                0x0000000000000000       0x10 build/asm/3DB20.s.o
 .reginfo       0x0000000000000000       0x18 build/asm/3DB80.s.o
 .MIPS.abiflags
                0x0000000000000000       0x18 build/asm/3DB80.s.o
 .pdr           0x0000000000000000        0x0 build/asm/3DB80.s.o
 .gnu.attributes
                0x0000000000000000       0x10 build/asm/3DB80.s.o
 .reginfo       0x0000000000000000       0x18 build/asm/3DBD0.s.o
 .MIPS.abiflags
                0x0000000000000000       0x18 build/asm/3DBD0.s.o
 .pdr           0x0000000000000000        0x0 build/asm/3DBD0.s.o
 .gnu.attributes
                0x0000000000000000       0x10 build/asm/3DBD0.s.o
 .reginfo       0x0000000000000000       0x18 build/asm/3DC30.s.o
 .MIPS.abiflags
                0x0000000000000000       0x18 build/asm/3DC30.s.o
 .pdr           0x0000000000000000        0x0 build/asm/3DC30.s.o
 .gnu.attributes
                0x0000000000000000       0x10 build/asm/3DC30.s.o
 .reginfo       0x0000000000000000       0x18 build/asm/3DC90.s.o
 .MIPS.abiflags
                0x0000000000000000       0x18 build/asm/3DC90.s.o
 .pdr           0x0000000000000000        0x0 build/asm/3DC90.s.o
 .gnu.attributes
                0x0000000000000000       0x10 build/asm/3DC90.s.o
 .reginfo       0x0000000000000000       0x18 build/asm/3DCF0.s.o
 .MIPS.abiflags
                0x0000000000000000       0x18 build/asm/3DCF0.s.o
 .pdr           0x0000000000000000        0x0 build/asm/3DCF0.s.o
 .gnu.attributes
                0x0000000000000000       0x10 build/asm/3DCF0.s.o
 .reginfo       0x0000000000000000       0x18 build/asm/3E4D0.s.o
 .MIPS.abiflags
                0x0000000000000000       0x18 build/asm/3E4D0.s.o
 .pdr           0x0000000000000000        0x0 build/asm/3E4D0.s.o
 .gnu.attributes
                0x0000000000000000       0x10 build/asm/3E4D0.s.o
 .reginfo       0x0000000000000000       0x18 build/asm/3E510.s.o
 .MIPS.abiflags
                0x0000000000000000       0x18 build/asm/3E510.s.o
 .pdr           0x0000000000000000        0x0 build/asm/3E510.s.o
 .gnu.attributes
                0x0000000000000000       0x10 build/asm/3E510.s.o
 .reginfo       0x0000000000000000       0x18 build/asm/3E850.s.o
 .MIPS.abiflags
                0x0000000000000000       0x18 build/asm/3E850.s.o
 .pdr           0x0000000000000000        0x0 build/asm/3E850.s.o
 .gnu.attributes
                0x0000000000000000       0x10 build/asm/3E850.s.o
 .reginfo       0x0000000000000000       0x18 build/asm/3E8C0.s.o
 .MIPS.abiflags
                0x0000000000000000       0x18 build/asm/3E8C0.s.o
 .pdr           0x0000000000000000        0x0 build/asm/3E8C0.s.o
 .gnu.attributes
                0x0000000000000000       0x10 build/asm/3E8C0.s.o
 .reginfo       0x0000000000000000       0x18 build/asm/3EAA0.s.o
 .MIPS.abiflags
                0x0000000000000000       0x18 build/asm/3EAA0.s.o
 .pdr           0x0000000000000000        0x0 build/asm/3EAA0.s.o
 .gnu.attributes
                0x0000000000000000       0x10 build/asm/3EAA0.s.o
 .reginfo       0x0000000000000000       0x18 build/asm/3EC80.s.o
 .MIPS.abiflags
                0x0000000000000000       0x18 build/asm/3EC80.s.o
 .pdr           0x0000000000000000        0x0 build/asm/3EC80.s.o
 .gnu.attributes
                0x0000000000000000       0x10 build/asm/3EC80.s.o
 .reginfo       0x0000000000000000       0x18 build/asm/3EE20.s.o
 .MIPS.abiflags
                0x0000000000000000       0x18 build/asm/3EE20.s.o
 .pdr           0x0000000000000000        0x0 build/asm/3EE20.s.o
 .gnu.attributes
                0x0000000000000000       0x10 build/asm/3EE20.s.o
 .reginfo       0x0000000000000000       0x18 build/asm/3F2A0.s.o
 .MIPS.abiflags
                0x0000000000000000       0x18 build/asm/3F2A0.s.o
 .pdr           0x0000000000000000        0x0 build/asm/3F2A0.s.o
 .gnu.attributes
                0x0000000000000000       0x10 build/asm/3F2A0.s.o
 .reginfo       0x0000000000000000       0x18 build/asm/3F510.s.o
 .MIPS.abiflags
                0x0000000000000000       0x18 build/asm/3F510.s.o
 .pdr           0x0000000000000000        0x0 build/asm/3F510.s.o
 .gnu.attributes
                0x0000000000000000       0x10 build/asm/3F510.s.o
 .reginfo       0x0000000000000000       0x18 build/asm/3F960.s.o
 .MIPS.abiflags
                0x0000000000000000       0x18 build/asm/3F960.s.o
 .pdr           0x0000000000000000        0x0 build/asm/3F960.s.o
 .gnu.attributes
                0x0000000000000000       0x10 build/asm/3F960.s.o
 .reginfo       0x0000000000000000       0x18 build/asm/3F9C0.s.o
 .MIPS.abiflags
                0x0000000000000000       0x18 build/asm/3F9C0.s.o
 .pdr           0x0000000000000000        0x0 build/asm/3F9C0.s.o
 .gnu.attributes
                0x0000000000000000       0x10 build/asm/3F9C0.s.o
 .reginfo       0x0000000000000000       0x18 build/asm/3FB90.s.o
 .MIPS.abiflags
                0x0000000000000000       0x18 build/asm/3FB90.s.o
 .pdr           0x0000000000000000        0x0 build/asm/3FB90.s.o
 .gnu.attributes
                0x0000000000000000       0x10 build/asm/3FB90.s.o
 .reginfo       0x0000000000000000       0x18 build/asm/3FBB0.s.o
 .MIPS.abiflags
                0x0000000000000000       0x18 build/asm/3FBB0.s.o
 .pdr           0x0000000000000000        0x0 build/asm/3FBB0.s.o
 .gnu.attributes
                0x0000000000000000       0x10 build/asm/3FBB0.s.o
 .reginfo       0x0000000000000000       0x18 build/asm/3FC60.s.o
 .MIPS.abiflags
                0x0000000000000000       0x18 build/asm/3FC60.s.o
 .pdr           0x0000000000000000        0x0 build/asm/3FC60.s.o
 .gnu.attributes
                0x0000000000000000       0x10 build/asm/3FC60.s.o
 .reginfo       0x0000000000000000       0x18 build/asm/405B0.s.o
 .MIPS.abiflags
                0x0000000000000000       0x18 build/asm/405B0.s.o
 .pdr           0x0000000000000000        0x0 build/asm/405B0.s.o
 .gnu.attributes
                0x0000000000000000       0x10 build/asm/405B0.s.o
 .reginfo       0x0000000000000000       0x18 build/asm/40610.s.o
 .MIPS.abiflags
                0x0000000000000000       0x18 build/asm/40610.s.o
 .pdr           0x0000000000000000        0x0 build/asm/40610.s.o
 .gnu.attributes
                0x0000000000000000       0x10 build/asm/40610.s.o
 .reginfo       0x0000000000000000       0x18 build/asm/40670.s.o
 .MIPS.abiflags
                0x0000000000000000       0x18 build/asm/40670.s.o
 .pdr           0x0000000000000000        0x0 build/asm/40670.s.o
 .gnu.attributes
                0x0000000000000000       0x10 build/asm/40670.s.o
 .reginfo       0x0000000000000000       0x18 build/asm/40710.s.o
 .MIPS.abiflags
                0x0000000000000000       0x18 build/asm/40710.s.o
 .pdr           0x0000000000000000        0x0 build/asm/40710.s.o
 .gnu.attributes
                0x0000000000000000       0x10 build/asm/40710.s.o
 .reginfo       0x0000000000000000       0x18 build/asm/40750.s.o
 .MIPS.abiflags
                0x0000000000000000       0x18 build/asm/40750.s.o
 .pdr           0x0000000000000000        0x0 build/asm/40750.s.o
 .gnu.attributes
                0x0000000000000000       0x10 build/asm/40750.s.o
 .reginfo       0x0000000000000000       0x18 build/asm/40870.s.o
 .MIPS.abiflags
                0x0000000000000000       0x18 build/asm/40870.s.o
 .pdr           0x0000000000000000        0x0 build/asm/40870.s.o
 .gnu.attributes
                0x0000000000000000       0x10 build/asm/40870.s.o
 .reginfo       0x0000000000000000       0x18 build/asm/40C60.s.o
 .MIPS.abiflags
                0x0000000000000000       0x18 build/asm/40C60.s.o
 .pdr           0x0000000000000000        0x0 build/asm/40C60.s.o
 .gnu.attributes
                0x0000000000000000       0x10 build/asm/40C60.s.o
 .reginfo       0x0000000000000000       0x18 build/asm/41230.s.o
 .MIPS.abiflags
                0x0000000000000000       0x18 build/asm/41230.s.o
 .pdr           0x0000000000000000        0x0 build/asm/41230.s.o
 .gnu.attributes
                0x0000000000000000       0x10 build/asm/41230.s.o
 .reginfo       0x0000000000000000       0x18 build/asm/41240.s.o
 .MIPS.abiflags
                0x0000000000000000       0x18 build/asm/41240.s.o
 .pdr           0x0000000000000000        0x0 build/asm/41240.s.o
 .gnu.attributes
                0x0000000000000000       0x10 build/asm/41240.s.o
 .reginfo       0x0000000000000000       0x18 build/asm/41250.s.o
 .MIPS.abiflags
                0x0000000000000000       0x18 build/asm/41250.s.o
 .pdr           0x0000000000000000        0x0 build/asm/41250.s.o
 .gnu.attributes
                0x0000000000000000       0x10 build/asm/41250.s.o
 .reginfo       0x0000000000000000       0x18 build/asm/415A0.s.o
 .MIPS.abiflags
                0x0000000000000000       0x18 build/asm/415A0.s.o
 .pdr           0x0000000000000000        0x0 build/asm/415A0.s.o
 .gnu.attributes
                0x0000000000000000       0x10 build/asm/415A0.s.o
 .reginfo       0x0000000000000000       0x18 build/asm/41630.s.o
 .MIPS.abiflags
                0x0000000000000000       0x18 build/asm/41630.s.o
 .pdr           0x0000000000000000        0x0 build/asm/41630.s.o
 .gnu.attributes
                0x0000000000000000       0x10 build/asm/41630.s.o
 .reginfo       0x0000000000000000       0x18 build/asm/41660.s.o
 .MIPS.abiflags
                0x0000000000000000       0x18 build/asm/41660.s.o
 .pdr           0x0000000000000000        0x0 build/asm/41660.s.o
 .gnu.attributes
                0x0000000000000000       0x10 build/asm/41660.s.o
 .reginfo       0x0000000000000000       0x18 build/asm/41A70.s.o
 .MIPS.abiflags
                0x0000000000000000       0x18 build/asm/41A70.s.o
 .pdr           0x0000000000000000        0x0 build/asm/41A70.s.o
 .gnu.attributes
                0x0000000000000000       0x10 build/asm/41A70.s.o
 .reginfo       0x0000000000000000       0x18 build/asm/41D70.s.o
 .MIPS.abiflags
                0x0000000000000000       0x18 build/asm/41D70.s.o
 .pdr           0x0000000000000000        0x0 build/asm/41D70.s.o
 .gnu.attributes
                0x0000000000000000       0x10 build/asm/41D70.s.o
 .reginfo       0x0000000000000000       0x18 build/asm/41D80.s.o
 .MIPS.abiflags
                0x0000000000000000       0x18 build/asm/41D80.s.o
 .pdr           0x0000000000000000        0x0 build/asm/41D80.s.o
 .gnu.attributes
                0x0000000000000000       0x10 build/asm/41D80.s.o
 .reginfo       0x0000000000000000       0x18 build/asm/41E40.s.o
 .MIPS.abiflags
                0x0000000000000000       0x18 build/asm/41E40.s.o
 .pdr           0x0000000000000000        0x0 build/asm/41E40.s.o
 .gnu.attributes
                0x0000000000000000       0x10 build/asm/41E40.s.o
 .reginfo       0x0000000000000000       0x18 build/asm/42B00.s.o
 .MIPS.abiflags
                0x0000000000000000       0x18 build/asm/42B00.s.o
 .pdr           0x0000000000000000        0x0 build/asm/42B00.s.o
 .gnu.attributes
                0x0000000000000000       0x10 build/asm/42B00.s.o
 .reginfo       0x0000000000000000       0x18 build/asm/42BA0.s.o
 .MIPS.abiflags
                0x0000000000000000       0x18 build/asm/42BA0.s.o
 .pdr           0x0000000000000000        0x0 build/asm/42BA0.s.o
 .gnu.attributes
                0x0000000000000000       0x10 build/asm/42BA0.s.o
 .reginfo       0x0000000000000000       0x18 build/asm/42D20.s.o
 .MIPS.abiflags
                0x0000000000000000       0x18 build/asm/42D20.s.o
 .pdr           0x0000000000000000        0x0 build/asm/42D20.s.o
 .gnu.attributes
                0x0000000000000000       0x10 build/asm/42D20.s.o
 .reginfo       0x0000000000000000       0x18 build/asm/42D30.s.o
 .MIPS.abiflags
                0x0000000000000000       0x18 build/asm/42D30.s.o
 .pdr           0x0000000000000000        0x0 build/asm/42D30.s.o
 .gnu.attributes
                0x0000000000000000       0x10 build/asm/42D30.s.o
 .reginfo       0x0000000000000000       0x18 build/asm/43810.s.o
 .MIPS.abiflags
                0x0000000000000000       0x18 build/asm/43810.s.o
 .pdr           0x0000000000000000        0x0 build/asm/43810.s.o
 .gnu.attributes
                0x0000000000000000       0x10 build/asm/43810.s.o
 .reginfo       0x0000000000000000       0x18 build/asm/438B0.s.o
 .MIPS.abiflags
                0x0000000000000000       0x18 build/asm/438B0.s.o
 .pdr           0x0000000000000000        0x0 build/asm/438B0.s.o
 .gnu.attributes
                0x0000000000000000       0x10 build/asm/438B0.s.o
 .reginfo       0x0000000000000000       0x18 build/asm/44550.s.o
 .MIPS.abiflags
                0x0000000000000000       0x18 build/asm/44550.s.o
 .pdr           0x0000000000000000        0x0 build/asm/44550.s.o
 .gnu.attributes
                0x0000000000000000       0x10 build/asm/44550.s.o
 .reginfo       0x0000000000000000       0x18 build/asm/44850.s.o
 .MIPS.abiflags
                0x0000000000000000       0x18 build/asm/44850.s.o
 .pdr           0x0000000000000000        0x0 build/asm/44850.s.o
 .gnu.attributes
                0x0000000000000000       0x10 build/asm/44850.s.o
 .reginfo       0x0000000000000000       0x18 build/asm/454B0.s.o
 .MIPS.abiflags
                0x0000000000000000       0x18 build/asm/454B0.s.o
 .pdr           0x0000000000000000        0x0 build/asm/454B0.s.o
 .gnu.attributes
                0x0000000000000000       0x10 build/asm/454B0.s.o
 .reginfo       0x0000000000000000       0x18 build/asm/455C0.s.o
 .MIPS.abiflags
                0x0000000000000000       0x18 build/asm/455C0.s.o
 .pdr           0x0000000000000000        0x0 build/asm/455C0.s.o
 .gnu.attributes
                0x0000000000000000       0x10 build/asm/455C0.s.o
 .reginfo       0x0000000000000000       0x18 build/asm/46FF0.s.o
 .MIPS.abiflags
                0x0000000000000000       0x18 build/asm/46FF0.s.o
 .pdr           0x0000000000000000        0x0 build/asm/46FF0.s.o
 .gnu.attributes
                0x0000000000000000       0x10 build/asm/46FF0.s.o
 .reginfo       0x0000000000000000       0x18 build/asm/470C0.s.o
 .MIPS.abiflags
                0x0000000000000000       0x18 build/asm/470C0.s.o
 .pdr           0x0000000000000000        0x0 build/asm/470C0.s.o
 .gnu.attributes
                0x0000000000000000       0x10 build/asm/470C0.s.o
 .reginfo       0x0000000000000000       0x18 build/asm/47210.s.o
 .MIPS.abiflags
                0x0000000000000000       0x18 build/asm/47210.s.o
 .pdr           0x0000000000000000        0x0 build/asm/47210.s.o
 .gnu.attributes
                0x0000000000000000       0x10 build/asm/47210.s.o
 .reginfo       0x0000000000000000       0x18 build/asm/472A0.s.o
 .MIPS.abiflags
                0x0000000000000000       0x18 build/asm/472A0.s.o
 .pdr           0x0000000000000000        0x0 build/asm/472A0.s.o
 .gnu.attributes
                0x0000000000000000       0x10 build/asm/472A0.s.o
 .reginfo       0x0000000000000000       0x18 build/asm/474D0.s.o
 .MIPS.abiflags
                0x0000000000000000       0x18 build/asm/474D0.s.o
 .pdr           0x0000000000000000        0x0 build/asm/474D0.s.o
 .gnu.attributes
                0x0000000000000000       0x10 build/asm/474D0.s.o
 .reginfo       0x0000000000000000       0x18 build/asm/47610.s.o
 .MIPS.abiflags
                0x0000000000000000       0x18 build/asm/47610.s.o
 .pdr           0x0000000000000000        0x0 build/asm/47610.s.o
 .gnu.attributes
                0x0000000000000000       0x10 build/asm/47610.s.o
 .reginfo       0x0000000000000000       0x18 build/asm/476A0.s.o
 .MIPS.abiflags
                0x0000000000000000       0x18 build/asm/476A0.s.o
 .pdr           0x0000000000000000        0x0 build/asm/476A0.s.o
 .gnu.attributes
                0x0000000000000000       0x10 build/asm/476A0.s.o
 .reginfo       0x0000000000000000       0x18 build/asm/47740.s.o
 .MIPS.abiflags
                0x0000000000000000       0x18 build/asm/47740.s.o
 .pdr           0x0000000000000000        0x0 build/asm/47740.s.o
 .gnu.attributes
                0x0000000000000000       0x10 build/asm/47740.s.o
 .reginfo       0x0000000000000000       0x18 build/asm/477D0.s.o
 .MIPS.abiflags
                0x0000000000000000       0x18 build/asm/477D0.s.o
 .pdr           0x0000000000000000        0x0 build/asm/477D0.s.o
 .gnu.attributes
                0x0000000000000000       0x10 build/asm/477D0.s.o
 .reginfo       0x0000000000000000       0x18 build/asm/47AC0.s.o
 .MIPS.abiflags
                0x0000000000000000       0x18 build/asm/47AC0.s.o
 .pdr           0x0000000000000000        0x0 build/asm/47AC0.s.o
 .gnu.attributes
                0x0000000000000000       0x10 build/asm/47AC0.s.o
 .reginfo       0x0000000000000000       0x18 build/asm/47B40.s.o
 .MIPS.abiflags
                0x0000000000000000       0x18 build/asm/47B40.s.o
 .pdr           0x0000000000000000        0x0 build/asm/47B40.s.o
 .gnu.attributes
                0x0000000000000000       0x10 build/asm/47B40.s.o
 .reginfo       0x0000000000000000       0x18 build/asm/47D70.s.o
 .MIPS.abiflags
                0x0000000000000000       0x18 build/asm/47D70.s.o
 .pdr           0x0000000000000000        0x0 build/asm/47D70.s.o
 .gnu.attributes
                0x0000000000000000       0x10 build/asm/47D70.s.o
 .reginfo       0x0000000000000000       0x18 build/asm/488F0.s.o
 .MIPS.abiflags
                0x0000000000000000       0x18 build/asm/488F0.s.o
 .pdr           0x0000000000000000        0x0 build/asm/488F0.s.o
 .gnu.attributes
                0x0000000000000000       0x10 build/asm/488F0.s.o
 .reginfo       0x0000000000000000       0x18 build/asm/49340.s.o
 .MIPS.abiflags
                0x0000000000000000       0x18 build/asm/49340.s.o
 .pdr           0x0000000000000000        0x0 build/asm/49340.s.o
 .gnu.attributes
                0x0000000000000000       0x10 build/asm/49340.s.o
 .reginfo       0x0000000000000000       0x18 build/asm/494B0.s.o
 .MIPS.abiflags
                0x0000000000000000       0x18 build/asm/494B0.s.o
 .pdr           0x0000000000000000        0x0 build/asm/494B0.s.o
 .gnu.attributes
                0x0000000000000000       0x10 build/asm/494B0.s.o
 .reginfo       0x0000000000000000       0x18 build/asm/49700.s.o
 .MIPS.abiflags
                0x0000000000000000       0x18 build/asm/49700.s.o
 .pdr           0x0000000000000000        0x0 build/asm/49700.s.o
 .gnu.attributes
                0x0000000000000000       0x10 build/asm/49700.s.o
 .reginfo       0x0000000000000000       0x18 build/asm/497E0.s.o
 .MIPS.abiflags
                0x0000000000000000       0x18 build/asm/497E0.s.o
 .pdr           0x0000000000000000        0x0 build/asm/497E0.s.o
 .gnu.attributes
                0x0000000000000000       0x10 build/asm/497E0.s.o
 .reginfo       0x0000000000000000       0x18 build/asm/49990.s.o
 .MIPS.abiflags
                0x0000000000000000       0x18 build/asm/49990.s.o
 .pdr           0x0000000000000000        0x0 build/asm/49990.s.o
 .gnu.attributes
                0x0000000000000000       0x10 build/asm/49990.s.o
 .reginfo       0x0000000000000000       0x18 build/asm/499C0.s.o
 .MIPS.abiflags
                0x0000000000000000       0x18 build/asm/499C0.s.o
 .pdr           0x0000000000000000        0x0 build/asm/499C0.s.o
 .gnu.attributes
                0x0000000000000000       0x10 build/asm/499C0.s.o
 .reginfo       0x0000000000000000       0x18 build/asm/49AD0.s.o
 .MIPS.abiflags
                0x0000000000000000       0x18 build/asm/49AD0.s.o
 .pdr           0x0000000000000000        0x0 build/asm/49AD0.s.o
 .gnu.attributes
                0x0000000000000000       0x10 build/asm/49AD0.s.o
 .reginfo       0x0000000000000000       0x18 build/asm/49B30.s.o
 .MIPS.abiflags
                0x0000000000000000       0x18 build/asm/49B30.s.o
 .pdr           0x0000000000000000        0x0 build/asm/49B30.s.o
 .gnu.attributes
                0x0000000000000000       0x10 build/asm/49B30.s.o
 .reginfo       0x0000000000000000       0x18 build/asm/49E60.s.o
 .MIPS.abiflags
                0x0000000000000000       0x18 build/asm/49E60.s.o
 .pdr           0x0000000000000000        0x0 build/asm/49E60.s.o
 .gnu.attributes
                0x0000000000000000       0x10 build/asm/49E60.s.o
 .reginfo       0x0000000000000000       0x18 build/asm/49EB0.s.o
 .MIPS.abiflags
                0x0000000000000000       0x18 build/asm/49EB0.s.o
 .pdr           0x0000000000000000        0x0 build/asm/49EB0.s.o
 .gnu.attributes
                0x0000000000000000       0x10 build/asm/49EB0.s.o
 .reginfo       0x0000000000000000       0x18 build/asm/49F00.s.o
 .MIPS.abiflags
                0x0000000000000000       0x18 build/asm/49F00.s.o
 .pdr           0x0000000000000000        0x0 build/asm/49F00.s.o
 .gnu.attributes
                0x0000000000000000       0x10 build/asm/49F00.s.o
 .reginfo       0x0000000000000000       0x18 build/asm/49F10.s.o
 .MIPS.abiflags
                0x0000000000000000       0x18 build/asm/49F10.s.o
 .pdr           0x0000000000000000        0x0 build/asm/49F10.s.o
 .gnu.attributes
                0x0000000000000000       0x10 build/asm/49F10.s.o
 .reginfo       0x0000000000000000       0x18 build/asm/4A1B0.s.o
 .MIPS.abiflags
                0x0000000000000000       0x18 build/asm/4A1B0.s.o
 .pdr           0x0000000000000000        0x0 build/asm/4A1B0.s.o
 .gnu.attributes
                0x0000000000000000       0x10 build/asm/4A1B0.s.o
 .reginfo       0x0000000000000000       0x18 build/asm/4AC70.s.o
 .MIPS.abiflags
                0x0000000000000000       0x18 build/asm/4AC70.s.o
 .pdr           0x0000000000000000        0x0 build/asm/4AC70.s.o
 .gnu.attributes
                0x0000000000000000       0x10 build/asm/4AC70.s.o
 .reginfo       0x0000000000000000       0x18 build/asm/4ACF0.s.o
 .MIPS.abiflags
                0x0000000000000000       0x18 build/asm/4ACF0.s.o
 .pdr           0x0000000000000000        0x0 build/asm/4ACF0.s.o
 .gnu.attributes
                0x0000000000000000       0x10 build/asm/4ACF0.s.o
 .reginfo       0x0000000000000000       0x18 build/asm/4AD10.s.o
 .MIPS.abiflags
                0x0000000000000000       0x18 build/asm/4AD10.s.o
 .pdr           0x0000000000000000        0x0 build/asm/4AD10.s.o
 .gnu.attributes
                0x0000000000000000       0x10 build/asm/4AD10.s.o
 .reginfo       0x0000000000000000       0x18 build/asm/4B960.s.o
 .MIPS.abiflags
                0x0000000000000000       0x18 build/asm/4B960.s.o
 .pdr           0x0000000000000000        0x0 build/asm/4B960.s.o
 .gnu.attributes
                0x0000000000000000       0x10 build/asm/4B960.s.o
 .reginfo       0x0000000000000000       0x18 build/asm/4C3F0.s.o
 .MIPS.abiflags
                0x0000000000000000       0x18 build/asm/4C3F0.s.o
 .pdr           0x0000000000000000        0x0 build/asm/4C3F0.s.o
 .gnu.attributes
                0x0000000000000000       0x10 build/asm/4C3F0.s.o

Memory Configuration

Name             Origin             Length             Attributes
*default*        0x0000000000000000 0xffffffffffffffff

Linker script and memory map

LOAD build/asm/header.s.o
LOAD build/assets/boot.bin.o
LOAD build/src/1000.c.o
LOAD build/src/1130.c.o
LOAD build/asm/1870.s.o
LOAD build/asm/3B40.s.o
LOAD build/asm/3F50.s.o
LOAD build/asm/9D50.s.o
LOAD build/asm/DAE0.s.o
LOAD build/asm/E2A0.s.o
LOAD build/asm/113F0.s.o
LOAD build/asm/13DE0.s.o
LOAD build/asm/140D0.s.o
LOAD build/asm/15150.s.o
LOAD build/asm/17360.s.o
LOAD build/asm/1B200.s.o
LOAD build/asm/1E570.s.o
LOAD build/asm/1FA00.s.o
LOAD build/asm/20DA0.s.o
LOAD build/asm/216E0.s.o
LOAD build/asm/272D0.s.o
LOAD build/asm/27600.s.o
LOAD build/asm/27A90.s.o
LOAD build/asm/28D20.s.o
LOAD build/asm/29150.s.o
LOAD build/asm/2B0F0.s.o
LOAD build/asm/337B0.s.o
LOAD build/asm/35EC0.s.o
LOAD build/asm/363B0.s.o
LOAD build/asm/36DB0.s.o
LOAD build/asm/36E60.s.o
LOAD build/asm/376C0.s.o
LOAD build/asm/37980.s.o
LOAD build/asm/37AD0.s.o
LOAD build/asm/37E40.s.o
LOAD build/asm/37EB0.s.o
LOAD build/asm/37F20.s.o
LOAD build/asm/38060.s.o
LOAD build/asm/382C0.s.o
LOAD build/asm/382F0.s.o
LOAD build/asm/38680.s.o
LOAD build/asm/38770.s.o
LOAD build/asm/38A80.s.o
LOAD build/asm/38AF0.s.o
LOAD build/asm/38CB0.s.o
LOAD build/asm/38D30.s.o
LOAD build/asm/38DB0.s.o
LOAD build/asm/38E40.s.o
LOAD build/asm/39110.s.o
LOAD build/asm/39330.s.o
LOAD build/asm/39610.s.o
LOAD build/asm/39820.s.o
LOAD build/asm/39BA0.s.o
LOAD build/asm/39E30.s.o
LOAD build/asm/3A2C0.s.o
LOAD build/asm/3A360.s.o
LOAD build/asm/3A4D0.s.o
LOAD build/asm/3A550.s.o
LOAD build/asm/3A5D0.s.o
LOAD build/asm/3A680.s.o
LOAD build/asm/3A790.s.o
LOAD build/asm/3A7D0.s.o
LOAD build/asm/3A830.s.o
LOAD build/asm/3A980.s.o
LOAD build/asm/3AA80.s.o
LOAD build/asm/3B170.s.o
LOAD build/asm/3B220.s.o
LOAD build/asm/3B230.s.o
LOAD build/asm/3C460.s.o
LOAD build/asm/3C6B0.s.o
LOAD build/asm/3C6F0.s.o
LOAD build/asm/3D1B0.s.o
LOAD build/asm/3D1F0.s.o
LOAD build/asm/3D280.s.o
LOAD build/asm/3D2C0.s.o
LOAD build/asm/3D9D0.s.o
LOAD build/asm/3DA70.s.o
LOAD build/asm/3DA90.s.o
LOAD build/asm/3DB20.s.o
LOAD build/asm/3DB80.s.o
LOAD build/asm/3DBD0.s.o
LOAD build/asm/3DC30.s.o
LOAD build/asm/3DC90.s.o
LOAD build/asm/3DCF0.s.o
LOAD build/asm/3E4D0.s.o
LOAD build/asm/3E510.s.o
LOAD build/asm/3E850.s.o
LOAD build/asm/3E8C0.s.o
LOAD build/asm/3EAA0.s.o
LOAD build/asm/3EC80.s.o
LOAD build/asm/3EE20.s.o
LOAD build/asm/3F2A0.s.o
LOAD build/asm/3F510.s.o
LOAD build/asm/3F960.s.o
LOAD build/asm/3F9C0.s.o
LOAD build/asm/3FB90.s.o
LOAD build/asm/3FBB0.s.o
LOAD build/asm/3FC60.s.o
LOAD build/asm/405B0.s.o
LOAD build/asm/40610.s.o
LOAD build/asm/40670.s.o
LOAD build/asm/40710.s.o
LOAD build/asm/40750.s.o
LOAD build/asm/40870.s.o
LOAD build/asm/40C60.s.o
LOAD build/asm/41230.s.o
LOAD build/asm/41240.s.o
LOAD build/asm/41250.s.o
LOAD build/asm/415A0.s.o
LOAD build/asm/41630.s.o
LOAD build/asm/41660.s.o
LOAD build/asm/41A70.s.o
LOAD build/asm/41D70.s.o
LOAD build/asm/41D80.s.o
LOAD build/asm/41E40.s.o
LOAD build/asm/42B00.s.o
LOAD build/asm/42BA0.s.o
LOAD build/asm/42D20.s.o
LOAD build/asm/42D30.s.o
LOAD build/asm/43810.s.o
LOAD build/asm/438B0.s.o
LOAD build/asm/44550.s.o
LOAD build/asm/44850.s.o
LOAD build/asm/454B0.s.o
LOAD build/asm/455C0.s.o
LOAD build/asm/46FF0.s.o
LOAD build/asm/470C0.s.o
LOAD build/asm/47210.s.o
LOAD build/asm/472A0.s.o
LOAD build/asm/474D0.s.o
LOAD build/asm/47610.s.o
LOAD build/asm/476A0.s.o
LOAD build/asm/47740.s.o
LOAD build/asm/477D0.s.o
LOAD build/asm/47AC0.s.o
LOAD build/asm/47B40.s.o
LOAD build/asm/47D70.s.o
LOAD build/asm/488F0.s.o
LOAD build/asm/49340.s.o
LOAD build/asm/494B0.s.o
LOAD build/asm/49700.s.o
LOAD build/asm/497E0.s.o
LOAD build/asm/49990.s.o
LOAD build/asm/499C0.s.o
LOAD build/asm/49AD0.s.o
LOAD build/asm/49B30.s.o
LOAD build/asm/49E60.s.o
LOAD build/asm/49EB0.s.o
LOAD build/asm/49F00.s.o
LOAD build/asm/49F10.s.o
LOAD build/asm/4A1B0.s.o
LOAD build/asm/4AC70.s.o
LOAD build/asm/4ACF0.s.o
LOAD build/asm/4AD10.s.o
LOAD build/asm/4B960.s.o
LOAD build/asm/4C3F0.s.o
LOAD build/assets/4C580.bin.o
LOAD build/assets/4C7B0.bin.o
                0x0000000001000000                __romPos = 0x0
                0x0000000000000000                _gp = 0x0
                0x0000000000000000                header_ROM_START = __romPos
                0x0000000000000000                header_VRAM = ADDR (.header)

.header         0x0000000000000000       0x40
                0x0000000000000000                header_DATA_START = .
                0x0000000000000000                header_s = .
 build/asm/header.s.o(.data)
 .data          0x0000000000000000       0x40 build/asm/header.s.o
                0x0000000000000040                header_DATA_END = .
                0x0000000000000040                header_DATA_SIZE = ABSOLUTE ((header_DATA_END - header_DATA_START))
                0x0000000001000000                __romPos = (__romPos + SIZEOF (.header))
                0x0000000000000040                header_ROM_END = __romPos
                0x0000000000000040                header_VRAM_END = .
                0x0000000000000040                boot_ROM_START = __romPos
                0x0000000000000040                boot_VRAM = ADDR (.boot)

.boot           0x0000000000000040      0xfc0
                0x0000000000000040                boot_DATA_START = .
                0x0000000000000040                boot_bin = .
 build/assets/boot.bin.o(.data)
 .data          0x0000000000000040      0xfc0 build/assets/boot.bin.o
                0x0000000000000040                _binary_assets_boot_bin_start
                0x0000000000001000                _binary_assets_boot_bin_end
                0x0000000000001000                boot_DATA_END = .
                0x0000000000000fc0                boot_DATA_SIZE = ABSOLUTE ((boot_DATA_END - boot_DATA_START))
                0x0000000001000000                __romPos = (__romPos + SIZEOF (.boot))
                0x0000000000001000                boot_ROM_END = __romPos
                0x0000000000001000                boot_VRAM_END = .
                0x0000000000001000                main_ROM_START = __romPos
                0x0000000080000400                main_VRAM = ADDR (.main)

.main           0x0000000080000400    0x4b7b0 load address 0x0000000000001000
                0x0000000080000400                main_TEXT_START = .
 build/src/1000.c.o(.text)
 .text          0x0000000080000400      0x130 build/src/1000.c.o
                0x0000000080000400                func_80000400
                0x00000000800004b0                func_800004B0
 build/src/1130.c.o(.text)
 .text          0x0000000080000530      0x740 build/src/1130.c.o
                0x0000000080000530                func_80000530
                0x000000008000062c                func_8000062C
                0x00000000800006f8                func_800006F8
                0x0000000080000704                func_80000704
                0x0000000080000710                func_80000710
                0x00000000800007f4                func_800007F4
                0x0000000080000844                func_80000844
                0x00000000800008d0                func_800008D0
                0x0000000080000920                func_80000920
                0x0000000080000aa0                func_80000AA0
                0x0000000080000bd4                func_80000BD4
 build/asm/1870.s.o(.text)
 .text          0x0000000080000c70     0x22d0 build/asm/1870.s.o
                0x0000000080000c70                func_80000C70
                0x0000000080000e9c                .L80000E9C
                0x0000000080000eac                .L80000EAC
                0x0000000080000ebc                .L80000EBC
                0x0000000080000ecc                .L80000ECC
                0x0000000080000edc                .L80000EDC
                0x0000000080000eec                .L80000EEC
                0x0000000080000efc                .L80000EFC
                0x0000000080000f4c                func_80000F4C
                0x0000000080001084                func_80001084
                0x00000000800011b8                func_800011B8
                0x0000000080001278                func_80001278
                0x0000000080001944                func_80001944
                0x000000008000205c                func_8000205C
                0x00000000800023f4                func_800023F4
                0x000000008000275c                func_8000275C
                0x0000000080002948                func_80002948
                0x0000000080002a8c                func_80002A8C
                0x0000000080002bdc                func_80002BDC
                0x0000000080002d44                func_80002D44
                0x0000000080002db0                func_80002DB0
                0x0000000080002de0                .L80002DE0
                0x0000000080002dfc                .L80002DFC
                0x0000000080002e18                .L80002E18
                0x0000000080002e34                .L80002E34
                0x0000000080002e50                .L80002E50
                0x0000000080002e74                func_80002E74
                0x0000000080002ea4                .L80002EA4
                0x0000000080002ec0                .L80002EC0
                0x0000000080002edc                .L80002EDC
                0x0000000080002ef8                .L80002EF8
                0x0000000080002f14                .L80002F14
 build/asm/3B40.s.o(.text)
 .text          0x0000000080002f40      0x410 build/asm/3B40.s.o
                0x0000000080002f40                func_80002F40
                0x0000000080003184                func_80003184
                0x000000008000328c                func_8000328C
                0x00000000800032e4                func_800032E4
 build/asm/3F50.s.o(.text)
 .text          0x0000000080003350     0x5e00 build/asm/3F50.s.o
                0x0000000080003350                func_80003350
                0x0000000080003494                func_80003494
                0x0000000080003b20                func_80003B20
                0x0000000080003be0                func_80003BE0
                0x000000008000464c                func_8000464C
                0x00000000800047f8                func_800047F8
                0x00000000800049f4                func_800049F4
                0x0000000080004dec                func_80004DEC
                0x0000000080004e28                func_80004E28
                0x0000000080004ed0                func_80004ED0
                0x000000008000503c                func_8000503C
                0x00000000800050e8                func_800050E8
                0x000000008000525c                func_8000525C
                0x00000000800052e0                func_800052E0
                0x000000008000571c                func_8000571C
                0x0000000080005850                func_80005850
                0x0000000080005a18                func_80005A18
                0x0000000080005ab4                func_80005AB4
                0x0000000080005c00                func_80005C00
                0x0000000080005d18                func_80005D18
                0x0000000080005e78                func_80005E78
                0x0000000080006040                func_80006040
                0x0000000080006168                func_80006168
                0x000000008000665c                func_8000665C
                0x00000000800069e0                func_800069E0
                0x0000000080006a50                func_80006A50
                0x0000000080006a58                func_80006A58
                0x0000000080006d24                func_80006D24
                0x0000000080006f80                func_80006F80
                0x0000000080007320                func_80007320
                0x00000000800073e8                func_800073E8
                0x0000000080007658                func_80007658
                0x000000008000791c                func_8000791C
                0x00000000800079b4                func_800079B4
                0x0000000080007a38                func_80007A38
                0x0000000080007a8c                func_80007A8C
                0x0000000080007d30                func_80007D30
                0x0000000080007e04                func_80007E04
                0x0000000080007eac                func_80007EAC
                0x0000000080007fd8                func_80007FD8
                0x000000008000847c                func_8000847C
                0x0000000080008540                func_80008540
                0x00000000800085d8                func_800085D8
                0x0000000080008840                func_80008840
                0x0000000080008970                func_80008970
                0x0000000080008a40                func_80008A40
 build/asm/9D50.s.o(.text)
 .text          0x0000000080009150     0x3d90 build/asm/9D50.s.o
                0x0000000080009150                func_80009150
                0x00000000800091e0                func_800091E0
                0x0000000080009594                func_80009594
                0x0000000080009764                func_80009764
                0x00000000800097f8                func_800097F8
                0x0000000080009988                func_80009988
                0x0000000080009a54                func_80009A54
                0x0000000080009ddc                func_80009DDC
                0x000000008000a040                func_8000A040
                0x000000008000a0f8                func_8000A0F8
                0x000000008000a1d0                func_8000A1D0
                0x000000008000a2a0                func_8000A2A0
                0x000000008000a310                func_8000A310
                0x000000008000a3e4                func_8000A3E4
                0x000000008000a5e4                func_8000A5E4
                0x000000008000a65c                func_8000A65C
                0x000000008000a6d0                func_8000A6D0
                0x000000008000a95c                func_8000A95C
                0x000000008000aa28                func_8000AA28
                0x000000008000aa74                func_8000AA74
                0x000000008000ac84                func_8000AC84
                0x000000008000af14                func_8000AF14
                0x000000008000b030                func_8000B030
                0x000000008000b0d8                func_8000B0D8
                0x000000008000b508                func_8000B508
                0x000000008000b7a4                func_8000B7A4
                0x000000008000ba20                func_8000BA20
                0x000000008000bb90                func_8000BB90
                0x000000008000bca4                func_8000BCA4
                0x000000008000bfe0                func_8000BFE0
                0x000000008000c05c                func_8000C05C
                0x000000008000c3fc                func_8000C3FC
                0x000000008000c48c                func_8000C48C
                0x000000008000c528                func_8000C528
                0x000000008000c5f8                .L8000C5F8
                0x000000008000c608                .L8000C608
                0x000000008000c618                .L8000C618
                0x000000008000ca88                func_8000CA88
                0x000000008000cab8                func_8000CAB8
                0x000000008000cae8                func_8000CAE8
                0x000000008000cc30                func_8000CC30
                0x000000008000cc40                func_8000CC40
                0x000000008000cc78                func_8000CC78
 build/asm/DAE0.s.o(.text)
 .text          0x000000008000cee0      0x7c0 build/asm/DAE0.s.o
                0x000000008000cee0                func_8000CEE0
                0x000000008000cef0                func_8000CEF0
                0x000000008000cfd8                func_8000CFD8
                0x000000008000d100                func_8000D100
                0x000000008000d19c                func_8000D19C
                0x000000008000d398                func_8000D398
                0x000000008000d3cc                func_8000D3CC
                0x000000008000d40c                func_8000D40C
                0x000000008000d528                func_8000D528
 build/asm/E2A0.s.o(.text)
 .text          0x000000008000d6a0     0x3150 build/asm/E2A0.s.o
                0x000000008000d6a0                func_8000D6A0
                0x000000008000ddbc                func_8000DDBC
                0x000000008000de54                func_8000DE54
                0x000000008000e81c                func_8000E81C
                0x000000008000eea8                func_8000EEA8
                0x000000008000f34c                func_8000F34C
                0x000000008000f4a0                func_8000F4A0
                0x000000008000f4c8                func_8000F4C8
                0x000000008000f50c                func_8000F50C
                0x000000008000f5dc                func_8000F5DC
                0x000000008000f740                func_8000F740
                0x000000008000fa9c                func_8000FA9C
                0x000000008000fbb4                func_8000FBB4
                0x000000008000fc50                func_8000FC50
                0x000000008000fce0                func_8000FCE0
                0x000000008000fd54                func_8000FD54
                0x000000008000fda8                func_8000FDA8
                0x000000008000ff18                func_8000FF18
                0x0000000080010104                func_80010104
                0x00000000800104c0                func_800104C0
                0x0000000080010768                func_80010768
 build/asm/113F0.s.o(.text)
 .text          0x00000000800107f0     0x29f0 build/asm/113F0.s.o
                0x00000000800107f0                func_800107F0
                0x0000000080010a4c                func_80010A4C
                0x0000000080010bc8                func_80010BC8
                0x0000000080010f34                func_80010F34
                0x0000000080011034                func_80011034
                0x000000008001164c                func_8001164C
                0x0000000080011770                func_80011770
                0x00000000800118e4                func_800118E4
                0x0000000080011978                func_80011978
                0x0000000080011a10                func_80011A10
                0x0000000080011a60                func_80011A60
                0x0000000080011ae0                func_80011AE0
                0x0000000080011c60                func_80011C60
                0x0000000080011ea0                func_80011EA0
                0x0000000080011ef4                func_80011EF4
                0x00000000800124e8                func_800124E8
                0x000000008001263c                func_8001263C
                0x0000000080012800                func_80012800
                0x0000000080012854                func_80012854
                0x0000000080012a60                func_80012A60
                0x0000000080012a90                func_80012A90
                0x0000000080012ae0                func_80012AE0
                0x0000000080012b00                func_80012B00
                0x0000000080012b34                func_80012B34
                0x0000000080012b68                func_80012B68
                0x0000000080012b88                func_80012B88
                0x00000000800130f8                func_800130F8
 build/asm/13DE0.s.o(.text)
 .text          0x00000000800131e0      0x2f0 build/asm/13DE0.s.o
                0x00000000800131e0                func_800131E0
                0x00000000800131f0                func_800131F0
                0x0000000080013264                func_80013264
 build/asm/140D0.s.o(.text)
 .text          0x00000000800134d0     0x1080 build/asm/140D0.s.o
                0x00000000800134d0                func_800134D0
                0x0000000080013500                func_80013500
                0x00000000800136b8                func_800136B8
                0x0000000080013808                func_80013808
                0x00000000800139ec                func_800139EC
                0x0000000080013a50                func_80013A50
                0x0000000080013b20                func_80013B20
                0x0000000080013b60                func_80013B60
                0x0000000080013ba0                func_80013BA0
                0x0000000080013bd0                func_80013BD0
                0x0000000080013d08                func_80013D08
                0x0000000080013e4c                func_80013E4C
                0x0000000080013fa4                func_80013FA4
                0x00000000800140b0                func_800140B0
                0x00000000800140f0                func_800140F0
                0x0000000080014130                func_80014130
                0x0000000080014318                func_80014318
                0x00000000800144b4                func_800144B4
 build/asm/15150.s.o(.text)
 .text          0x0000000080014550     0x2210 build/asm/15150.s.o
                0x0000000080014550                func_80014550
                0x0000000080014994                func_80014994
                0x0000000080014e04                func_80014E04
                0x0000000080015494                func_80015494
                0x0000000080015810                func_80015810
                0x0000000080015878                func_80015878
                0x0000000080015ad8                func_80015AD8
                0x0000000080015b88                func_80015B88
                0x0000000080015b94                func_80015B94
                0x0000000080015c38                func_80015C38
                0x0000000080015d78                func_80015D78
                0x0000000080015db4                func_80015DB4
                0x0000000080015f44                func_80015F44
                0x0000000080016218                func_80016218
                0x000000008001628c                func_8001628C
                0x00000000800163f4                func_800163F4
                0x0000000080016578                func_80016578
                0x000000008001668c                func_8001668C
 build/asm/17360.s.o(.text)
 .text          0x0000000080016760     0x3ea0 build/asm/17360.s.o
                0x0000000080016760                func_80016760
                0x00000000800167b0                func_800167B0
                0x00000000800168f0                func_800168F0
                0x00000000800169b8                func_800169B8
                0x0000000080016de0                func_80016DE0
                0x0000000080016e34                func_80016E34
                0x0000000080016ea8                func_80016EA8
                0x0000000080016f3c                func_80016F3C
                0x0000000080017028                func_80017028
                0x0000000080017134                func_80017134
                0x0000000080017244                func_80017244
                0x00000000800172d0                func_800172D0
                0x000000008001744c                func_8001744C
                0x0000000080017590                func_80017590
                0x0000000080017630                func_80017630
                0x0000000080017ab0                func_80017AB0
                0x0000000080017aec                func_80017AEC
                0x0000000080017f48                func_80017F48
                0x000000008001809c                func_8001809C
                0x0000000080018348                func_80018348
                0x0000000080018444                func_80018444
                0x0000000080018480                func_80018480
                0x000000008001860c                func_8001860C
                0x00000000800187c4                func_800187C4
                0x0000000080018968                func_80018968
                0x00000000800189f0                func_800189F0
                0x0000000080018aac                func_80018AAC
                0x0000000080018b40                func_80018B40
                0x0000000080018c14                func_80018C14
                0x0000000080018cd8                func_80018CD8
                0x0000000080018d88                func_80018D88
                0x0000000080018dc0                func_80018DC0
                0x0000000080018fb0                func_80018FB0
                0x0000000080019024                func_80019024
                0x0000000080019034                func_80019034
                0x00000000800190bc                func_800190BC
                0x0000000080019104                func_80019104
                0x0000000080019184                func_80019184
                0x000000008001920c                func_8001920C
                0x00000000800192c8                func_800192C8
                0x00000000800193a4                func_800193A4
                0x0000000080019408                func_80019408
                0x0000000080019450                func_80019450
                0x0000000080019498                func_80019498
                0x00000000800194e0                func_800194E0
                0x00000000800195e0                func_800195E0
                0x00000000800195fc                func_800195FC
                0x0000000080019820                func_80019820
                0x00000000800199c0                func_800199C0
                0x0000000080019bfc                func_80019BFC
                0x0000000080019d2c                func_80019D2C
                0x0000000080019fc8                func_80019FC8
                0x000000008001a1a4                func_8001A1A4
                0x000000008001a2a0                func_8001A2A0
                0x000000008001a2c4                func_8001A2C4
                0x000000008001a2ec                func_8001A2EC
                0x000000008001a340                func_8001A340
                0x000000008001a3ec                func_8001A3EC
                0x000000008001a4ac                func_8001A4AC
                0x000000008001a56c                func_8001A56C
 build/asm/1B200.s.o(.text)
 .text          0x000000008001a600     0x3370 build/asm/1B200.s.o
                0x000000008001a600                func_8001A600
                0x000000008001a658                func_8001A658
                0x000000008001a6b4                func_8001A6B4
                0x000000008001a6e4                func_8001A6E4
                0x000000008001a728                func_8001A728
                0x000000008001a828                func_8001A828
                0x000000008001a8f4                func_8001A8F4
                0x000000008001a948                func_8001A948
                0x000000008001ab44                func_8001AB44
                0x000000008001ac20                func_8001AC20
                0x000000008001ad28                func_8001AD28
                0x000000008001ad64                func_8001AD64
                0x000000008001ade4                func_8001ADE4
                0x000000008001ae24                func_8001AE24
                0x000000008001af90                func_8001AF90
                0x000000008001b3cc                func_8001B3CC
                0x000000008001b3fc                func_8001B3FC
                0x000000008001b45c                func_8001B45C
                0x000000008001b688                func_8001B688
                0x000000008001b7e0                func_8001B7E0
                0x000000008001b9c0                func_8001B9C0
                0x000000008001bb18                func_8001BB18
                0x000000008001bb48                func_8001BB48
                0x000000008001be2c                func_8001BE2C
                0x000000008001c038                func_8001C038
                0x000000008001c060                func_8001C060
                0x000000008001c298                func_8001C298
                0x000000008001c2f8                func_8001C2F8
                0x000000008001c7e8                func_8001C7E8
                0x000000008001c818                func_8001C818
                0x000000008001c948                func_8001C948
                0x000000008001cbd0                func_8001CBD0
                0x000000008001cdf4                func_8001CDF4
                0x000000008001d688                func_8001D688
                0x000000008001d6a8                func_8001D6A8
                0x000000008001d94c                func_8001D94C
 build/asm/1E570.s.o(.text)
 .text          0x000000008001d970     0x1490 build/asm/1E570.s.o
                0x000000008001d970                func_8001D970
                0x000000008001d9a8                func_8001D9A8
                0x000000008001da3c                func_8001DA3C
                0x000000008001dce8                func_8001DCE8
                0x000000008001ddac                .L8001DDAC
                0x000000008001dfac                .L8001DFAC
                0x000000008001e1b0                .L8001E1B0
                0x000000008001e3bc                .L8001E3BC
                0x000000008001e5c8                .L8001E5C8
                0x000000008001e7cc                .L8001E7CC
                0x000000008001e9d0                .L8001E9D0
                0x000000008001ebd8                .L8001EBD8
 build/asm/1FA00.s.o(.text)
 .text          0x000000008001ee00     0x13a0 build/asm/1FA00.s.o
                0x000000008001ee00                func_8001EE00
                0x000000008001ee94                func_8001EE94
                0x000000008001f164                func_8001F164
                0x000000008001f36c                func_8001F36C
                0x000000008001f888                func_8001F888
                0x000000008001fc14                func_8001FC14
                0x000000008001fd44                func_8001FD44
                0x000000008001fe08                func_8001FE08
                0x000000008001ff10                func_8001FF10
                0x00000000800200f0                func_800200F0
                0x00000000800200f8                func_800200F8
                0x000000008002018c                func_8002018C
 build/asm/20DA0.s.o(.text)
 .text          0x00000000800201a0      0x940 build/asm/20DA0.s.o
                0x00000000800201a0                func_800201A0
                0x0000000080020214                func_80020214
                0x0000000080020428                func_80020428
                0x0000000080020568                func_80020568
                0x000000008002099c                func_8002099C
                0x0000000080020a28                func_80020A28
 build/asm/216E0.s.o(.text)
 .text          0x0000000080020ae0     0x5bf0 build/asm/216E0.s.o
                0x0000000080020ae0                func_80020AE0
                0x0000000080020b78                func_80020B78
                0x0000000080021030                func_80021030
                0x00000000800213a8                func_800213A8
                0x0000000080021920                func_80021920
                0x0000000080021c04                func_80021C04
                0x0000000080022658                func_80022658
                0x0000000080022970                func_80022970
                0x00000000800230a8                func_800230A8
                0x00000000800231c4                func_800231C4
                0x00000000800232a8                func_800232A8
                0x000000008002338c                func_8002338C
                0x0000000080023470                func_80023470
                0x00000000800235d8                func_800235D8
                0x000000008002373c                func_8002373C
                0x0000000080023930                func_80023930
                0x0000000080023d28                func_80023D28
                0x0000000080023dec                func_80023DEC
                0x0000000080023df4                func_80023DF4
                0x0000000080023dfc                func_80023DFC
                0x0000000080023e04                func_80023E04
                0x0000000080023e0c                func_80023E0C
                0x0000000080023e14                func_80023E14
                0x000000008002430c                func_8002430C
                0x000000008002433c                func_8002433C
                0x000000008002440c                func_8002440C
                0x00000000800245d0                func_800245D0
                0x0000000080024694                func_80024694
                0x0000000080024904                func_80024904
                0x0000000080024974                func_80024974
                0x0000000080024a4c                func_80024A4C
                0x0000000080024a54                func_80024A54
                0x0000000080024d40                func_80024D40
                0x0000000080024eb0                func_80024EB0
                0x0000000080024f20                func_80024F20
                0x0000000080024fc4                func_80024FC4
                0x0000000080024ff0                func_80024FF0
                0x000000008002504c                func_8002504C
                0x0000000080025094                func_80025094
                0x00000000800250d8                func_800250D8
                0x00000000800251cc                func_800251CC
                0x0000000080025228                func_80025228
                0x0000000080025318                func_80025318
                0x0000000080026040                func_80026040
                0x0000000080026054                func_80026054
                0x00000000800260a8                func_800260A8
                0x00000000800260f4                func_800260F4
                0x0000000080026130                func_80026130
                0x0000000080026140                func_80026140
                0x0000000080026284                func_80026284
                0x0000000080026400                func_80026400
                0x0000000080026430                func_80026430
 build/asm/272D0.s.o(.text)
 .text          0x00000000800266d0      0x330 build/asm/272D0.s.o
                0x00000000800266d0                func_800266D0
                0x0000000080026774                func_80026774
                0x00000000800269b8                func_800269B8
 build/asm/27600.s.o(.text)
 .text          0x0000000080026a00      0x490 build/asm/27600.s.o
                0x0000000080026a00                func_80026A00
                0x0000000080026e20                func_80026E20
 build/asm/27A90.s.o(.text)
 .text          0x0000000080026e90     0x1290 build/asm/27A90.s.o
                0x0000000080026e90                func_80026E90
                0x0000000080026ee8                func_80026EE8
                0x0000000080027070                func_80027070
                0x00000000800270d0                func_800270D0
                0x00000000800271b4                func_800271B4
                0x0000000080027220                func_80027220
                0x00000000800273c0                func_800273C0
                0x0000000080027430                func_80027430
                0x000000008002758c                func_8002758C
                0x00000000800275dc                func_800275DC
                0x000000008002773c                func_8002773C
                0x00000000800277a4                func_800277A4
                0x0000000080027834                func_80027834
                0x00000000800278c8                func_800278C8
                0x0000000080027a8c                func_80027A8C
                0x0000000080027adc                func_80027ADC
                0x0000000080027cb4                func_80027CB4
                0x0000000080027d40                func_80027D40
                0x0000000080027ffc                func_80027FFC
 build/asm/28D20.s.o(.text)
 .text          0x0000000080028120      0x430 build/asm/28D20.s.o
                0x0000000080028120                func_80028120
                0x00000000800281f0                func_800281F0
 build/asm/29150.s.o(.text)
 .text          0x0000000080028550     0x1fa0 build/asm/29150.s.o
                0x0000000080028550                func_80028550
                0x00000000800285c4                func_800285C4
                0x0000000080028788                func_80028788
                0x0000000080028908                func_80028908
                0x00000000800289dc                func_800289DC
                0x0000000080028aac                func_80028AAC
                0x0000000080028f00                func_80028F00
                0x0000000080028fa8                func_80028FA8
                0x0000000080028ffc                func_80028FFC
                0x0000000080029198                func_80029198
                0x0000000080029224                func_80029224
                0x00000000800292dc                func_800292DC
                0x0000000080029328                func_80029328
                0x0000000080029374                func_80029374
                0x0000000080029520                func_80029520
                0x0000000080029588                func_80029588
                0x00000000800295d0                func_800295D0
                0x0000000080029618                func_80029618
                0x00000000800296d0                .L800296D0
                0x00000000800296e4                .L800296E4
                0x0000000080029700                .L80029700
                0x000000008002971c                .L8002971C
                0x0000000080029734                .L80029734
                0x00000000800297f4                func_800297F4
                0x0000000080029834                func_80029834
                0x0000000080029880                func_80029880
                0x0000000080029a38                func_80029A38
                0x0000000080029a88                func_80029A88
                0x0000000080029ad4                func_80029AD4
                0x0000000080029d10                func_80029D10
                0x000000008002a07c                .L8002A07C
                0x000000008002a098                .L8002A098
                0x000000008002a0b4                .L8002A0B4
                0x000000008002a0d0                .L8002A0D0
                0x000000008002a0ec                .L8002A0EC
                0x000000008002a118                func_8002A118
                0x000000008002a1f8                func_8002A1F8
                0x000000008002a2ac                func_8002A2AC
                0x000000008002a338                func_8002A338
                0x000000008002a38c                func_8002A38C
                0x000000008002a410                func_8002A410
                0x000000008002a458                func_8002A458
 build/asm/2B0F0.s.o(.text)
 .text          0x000000008002a4f0     0x86c0 build/asm/2B0F0.s.o
                0x000000008002a4f0                func_8002A4F0
                0x000000008002a558                func_8002A558
                0x000000008002a6b8                func_8002A6B8
                0x000000008002a6f4                func_8002A6F4
                0x000000008002a744                func_8002A744
                0x000000008002a7c8                func_8002A7C8
                0x000000008002a890                func_8002A890
                0x000000008002a900                func_8002A900
                0x000000008002a930                func_8002A930
                0x000000008002a954                func_8002A954
                0x000000008002a984                func_8002A984
                0x000000008002ac1c                func_8002AC1C
                0x000000008002ae58                func_8002AE58
                0x000000008002b844                func_8002B844
                0x000000008002c598                func_8002C598
                0x000000008002d7cc                func_8002D7CC
                0x000000008002decc                func_8002DECC
                0x000000008002df98                .L8002DF98
                0x000000008002dfa8                .L8002DFA8
                0x000000008002dfb0                .L8002DFB0
                0x000000008002dfbc                .L8002DFBC
                0x000000008002dfc0                .L8002DFC0
                0x000000008002e42c                func_8002E42C
                0x000000008002e9dc                func_8002E9DC
                0x000000008002eed8                func_8002EED8
                0x000000008002f2e4                func_8002F2E4
                0x000000008002f6d8                func_8002F6D8
                0x000000008002f87c                func_8002F87C
                0x000000008002fa00                func_8002FA00
                0x000000008002fa6c                func_8002FA6C
                0x000000008002fb10                .L8002FB10
                0x000000008002fb24                .L8002FB24
                0x000000008002fb38                .L8002FB38
                0x000000008002fb4c                .L8002FB4C
                0x000000008002fb60                .L8002FB60
                0x000000008002fb74                .L8002FB74
                0x000000008002fb88                .L8002FB88
                0x000000008002fbe0                func_8002FBE0
                0x000000008002fdb8                func_8002FDB8
                0x00000000800301dc                func_800301DC
                0x00000000800304b4                .L800304B4
                0x00000000800304e8                .L800304E8
                0x00000000800304f0                .L800304F0
                0x0000000080030524                .L80030524
                0x0000000080030574                .L80030574
                0x00000000800305b0                .L800305B0
                0x0000000080030638                .L80030638
                0x0000000080030660                .L80030660
                0x00000000800306b4                .L800306B4
                0x0000000080030ad0                .L80030AD0
                0x0000000080030aec                .L80030AEC
                0x0000000080030b18                .L80030B18
                0x0000000080030b48                .L80030B48
                0x0000000080030b78                .L80030B78
                0x0000000080030b9c                .L80030B9C
                0x0000000080030bc4                .L80030BC4
                0x0000000080030bd4                .L80030BD4
                0x0000000080030c20                .L80030C20
                0x0000000080030c30                .L80030C30
                0x0000000080030c40                .L80030C40
                0x0000000080030c68                .L80030C68
                0x0000000080030c84                .L80030C84
                0x0000000080030cb8                .L80030CB8
                0x0000000080030ce0                .L80030CE0
                0x0000000080030d24                .L80030D24
                0x0000000080030d4c                .L80030D4C
                0x0000000080030d5c                func_80030D5C
                0x0000000080030ffc                .L80030FFC
                0x0000000080031020                .L80031020
                0x0000000080031044                .L80031044
                0x0000000080031050                .L80031050
                0x0000000080031074                .L80031074
                0x0000000080031080                .L80031080
                0x00000000800310a4                .L800310A4
                0x0000000080031104                .L80031104
                0x0000000080031110                .L80031110
                0x000000008003111c                .L8003111C
                0x0000000080031124                .L80031124
                0x0000000080031434                .L80031434
                0x0000000080031454                .L80031454
                0x0000000080031474                .L80031474
                0x000000008003147c                .L8003147C
                0x000000008003149c                .L8003149C
                0x00000000800314a4                .L800314A4
                0x00000000800314c4                .L800314C4
                0x0000000080031514                .L80031514
                0x000000008003151c                .L8003151C
                0x0000000080031524                .L80031524
                0x0000000080031528                .L80031528
                0x0000000080031b28                func_80031B28
                0x0000000080031b68                func_80031B68
                0x0000000080031c9c                func_80031C9C
                0x0000000080031e10                func_80031E10
                0x0000000080032134                func_80032134
                0x000000008003226c                func_8003226C
                0x00000000800324f4                func_800324F4
                0x0000000080032558                func_80032558
                0x00000000800327bc                func_800327BC
                0x00000000800329b0                func_800329B0
 build/asm/337B0.s.o(.text)
 .text          0x0000000080032bb0     0x2710 build/asm/337B0.s.o
                0x0000000080032bb0                func_80032BB0
                0x0000000080032bf8                func_80032BF8
                0x0000000080032d20                func_80032D20
                0x0000000080033050                func_80033050
                0x0000000080033a98                .L80033A98
                0x0000000080033acc                .L80033ACC
                0x0000000080033aec                .L80033AEC
                0x0000000080033b18                .L80033B18
                0x0000000080033b38                .L80033B38
                0x000000008003403c                func_8003403C
                0x0000000080034274                func_80034274
                0x0000000080034380                func_80034380
                0x000000008003453c                func_8003453C
                0x00000000800348b8                func_800348B8
                0x0000000080034b30                func_80034B30
                0x0000000080034c18                func_80034C18
                0x0000000080034c9c                func_80034C9C
                0x000000008003509c                func_8003509C
                0x000000008003521c                func_8003521C
                0x000000008003522c                func_8003522C
 build/asm/35EC0.s.o(.text)
 .text          0x00000000800352c0      0x4f0 build/asm/35EC0.s.o
                0x00000000800352c0                func_800352C0
                0x0000000080035308                func_80035308
                0x0000000080035350                func_80035350
 build/asm/363B0.s.o(.text)
 .text          0x00000000800357b0      0xa00 build/asm/363B0.s.o
                0x00000000800357b0                func_800357B0
                0x0000000080035970                func_80035970
                0x0000000080035a24                func_80035A24
                0x0000000080035cc8                func_80035CC8
                0x0000000080035d58                func_80035D58
                0x0000000080035e24                func_80035E24
                0x0000000080035ea8                func_80035EA8
                0x0000000080035f0c                func_80035F0C
                0x0000000080035f94                func_80035F94
                0x000000008003609c                func_8003609C
                0x00000000800360c0                .L800360C0
                0x00000000800360c8                .L800360C8
                0x00000000800360d0                .L800360D0
                0x00000000800360d8                .L800360D8
                0x00000000800360e0                .L800360E0
                0x00000000800360e8                .L800360E8
                0x00000000800360f8                func_800360F8
                0x0000000080036124                func_80036124
                0x0000000080036144                func_80036144
                0x0000000080036164                func_80036164
                0x0000000080036184                func_80036184
 build/asm/36DB0.s.o(.text)
 .text          0x00000000800361b0       0xb0 build/asm/36DB0.s.o
                0x00000000800361b0                func_800361B0
                0x00000000800361e8                func_800361E8
                0x0000000080036220                func_80036220
 build/asm/36E60.s.o(.text)
 .text          0x0000000080036260      0x860 build/asm/36E60.s.o
                0x0000000080036260                func_80036260
                0x000000008003627c                func_8003627C
                0x000000008003642c                func_8003642C
                0x00000000800364f4                func_800364F4
                0x0000000080036544                func_80036544
                0x0000000080036664                func_80036664
 build/asm/376C0.s.o(.text)
 .text          0x0000000080036ac0      0x2c0 build/asm/376C0.s.o
                0x0000000080036ac0                func_80036AC0
 build/asm/37980.s.o(.text)
 .text          0x0000000080036d80      0x150 build/asm/37980.s.o
                0x0000000080036d80                func_80036D80
 build/asm/37AD0.s.o(.text)
 .text          0x0000000080036ed0      0x370 build/asm/37AD0.s.o
                0x0000000080036ed0                func_80036ED0
                0x0000000080037020                func_80037020
                0x000000008003719c                func_8003719C
                0x0000000080037210                func_80037210
 build/asm/37E40.s.o(.text)
 .text          0x0000000080037240       0x70 build/asm/37E40.s.o
                0x0000000080037240                func_80037240
 build/asm/37EB0.s.o(.text)
 .text          0x00000000800372b0       0x70 build/asm/37EB0.s.o
                0x00000000800372b0                func_800372B0
 build/asm/37F20.s.o(.text)
 .text          0x0000000080037320      0x140 build/asm/37F20.s.o
                0x0000000080037320                func_80037320
 build/asm/38060.s.o(.text)
 .text          0x0000000080037460      0x260 build/asm/38060.s.o
                0x0000000080037460                func_80037460
                0x00000000800374d0                func_800374D0
                0x0000000080037570                func_80037570
 build/asm/382C0.s.o(.text)
 .text          0x00000000800376c0       0x30 build/asm/382C0.s.o
                0x00000000800376c0                func_800376C0
 build/asm/382F0.s.o(.text)
 .text          0x00000000800376f0      0x390 build/asm/382F0.s.o
                0x00000000800376f0                func_800376F0
                0x0000000080037710                func_80037710
                0x0000000080037790                func_80037790
                0x00000000800378ac                func_800378AC
                0x0000000080037a3c                func_80037A3C
 build/asm/38680.s.o(.text)
 .text          0x0000000080037a80       0xf0 build/asm/38680.s.o
                0x0000000080037a80                func_80037A80
                0x0000000080037ad0                func_80037AD0
 build/asm/38770.s.o(.text)
 .text          0x0000000080037b70      0x310 build/asm/38770.s.o
                0x0000000080037b70                func_80037B70
                0x0000000080037cf0                func_80037CF0
 build/asm/38A80.s.o(.text)
 .text          0x0000000080037e80       0x70 build/asm/38A80.s.o
                0x0000000080037e80                func_80037E80
 build/asm/38AF0.s.o(.text)
 .text          0x0000000080037ef0      0x1c0 build/asm/38AF0.s.o
                0x0000000080037ef0                func_80037EF0
 build/asm/38CB0.s.o(.text)
 .text          0x00000000800380b0       0x80 build/asm/38CB0.s.o
                0x00000000800380b0                func_800380B0
 build/asm/38D30.s.o(.text)
 .text          0x0000000080038130       0x80 build/asm/38D30.s.o
                0x0000000080038130                func_80038130
 build/asm/38DB0.s.o(.text)
 .text          0x00000000800381b0       0x90 build/asm/38DB0.s.o
                0x00000000800381b0                func_800381B0
 build/asm/38E40.s.o(.text)
 .text          0x0000000080038240      0x2d0 build/asm/38E40.s.o
                0x0000000080038240                func_80038240
                0x000000008003826c                func_8003826C
                0x00000000800382a8                func_800382A8
                0x00000000800382e4                func_800382E4
                0x0000000080038310                func_80038310
                0x000000008003834c                func_8003834C
                0x00000000800383a8                func_800383A8
                0x00000000800383d8                func_800383D8
                0x0000000080038438                func_80038438
                0x00000000800384d4                func_800384D4
                0x0000000080038500                func_80038500
 build/asm/39110.s.o(.text)
 .text          0x0000000080038510      0x220 build/asm/39110.s.o
                0x0000000080038510                func_80038510
                0x00000000800386c0                func_800386C0
 build/asm/39330.s.o(.text)
 .text          0x0000000080038730      0x2e0 build/asm/39330.s.o
                0x0000000080038730                func_80038730
                0x00000000800387a0                func_800387A0
                0x00000000800388a0                func_800388A0
                0x0000000080038928                func_80038928
                0x0000000080038958                func_80038958
 build/asm/39610.s.o(.text)
 .text          0x0000000080038a10      0x210 build/asm/39610.s.o
                0x0000000080038a10                func_80038A10
                0x0000000080038ab0                func_80038AB0
 build/asm/39820.s.o(.text)
 .text          0x0000000080038c20      0x380 build/asm/39820.s.o
                0x0000000080038c20                func_80038C20
                0x0000000080038de0                func_80038DE0
                0x0000000080038f34                func_80038F34
 build/asm/39BA0.s.o(.text)
 .text          0x0000000080038fa0      0x290 build/asm/39BA0.s.o
                0x0000000080038fa0                func_80038FA0
                0x00000000800391d0                func_800391D0
 build/asm/39E30.s.o(.text)
 .text          0x0000000080039230      0x490 build/asm/39E30.s.o
                0x0000000080039230                func_80039230
                0x000000008003963c                func_8003963C
 build/asm/3A2C0.s.o(.text)
 .text          0x00000000800396c0       0xa0 build/asm/3A2C0.s.o
                0x00000000800396c0                func_800396C0
                0x0000000080039708                func_80039708
 build/asm/3A360.s.o(.text)
 .text          0x0000000080039760      0x170 build/asm/3A360.s.o
                0x0000000080039760                func_80039760
 build/asm/3A4D0.s.o(.text)
 .text          0x00000000800398d0       0x80 build/asm/3A4D0.s.o
                0x00000000800398d0                func_800398D0
                0x00000000800398f4                func_800398F4
 build/asm/3A550.s.o(.text)
 .text          0x0000000080039950       0x80 build/asm/3A550.s.o
                0x0000000080039950                func_80039950
 build/asm/3A5D0.s.o(.text)
 .text          0x00000000800399d0       0xb0 build/asm/3A5D0.s.o
                0x00000000800399d0                func_800399D0
 build/asm/3A680.s.o(.text)
 .text          0x0000000080039a80      0x110 build/asm/3A680.s.o
                0x0000000080039a80                func_80039A80
 build/asm/3A790.s.o(.text)
 .text          0x0000000080039b90       0x40 build/asm/3A790.s.o
                0x0000000080039b90                func_80039B90
 build/asm/3A7D0.s.o(.text)
 .text          0x0000000080039bd0       0x60 build/asm/3A7D0.s.o
                0x0000000080039bd0                func_80039BD0
 build/asm/3A830.s.o(.text)
 .text          0x0000000080039c30      0x150 build/asm/3A830.s.o
                0x0000000080039c30                func_80039C30
 build/asm/3A980.s.o(.text)
 .text          0x0000000080039d80      0x100 build/asm/3A980.s.o
                0x0000000080039d80                func_80039D80
                0x0000000080039db0                func_80039DB0
                0x0000000080039dd4                func_80039DD4
                0x0000000080039e0c                func_80039E0C
                0x0000000080039e40                func_80039E40
 build/asm/3AA80.s.o(.text)
 .text          0x0000000080039e80      0x6f0 build/asm/3AA80.s.o
                0x0000000080039e80                func_80039E80
                0x0000000080039e88                func_80039E88
                0x0000000080039ee0                func_80039EE0
                0x0000000080039f18                func_80039F18
                0x0000000080039f78                func_80039F78
                0x0000000080039f90                func_80039F90
                0x0000000080039fc0                func_80039FC0
                0x0000000080039fc8                func_80039FC8
                0x000000008003a260                func_8003A260
                0x000000008003a560                func_8003A560
 build/asm/3B170.s.o(.text)
 .text          0x000000008003a570       0xb0 build/asm/3B170.s.o
                0x000000008003a570                func_8003A570
 build/asm/3B220.s.o(.text)
 .text          0x000000008003a620       0x10 build/asm/3B220.s.o
                0x000000008003a620                func_8003A620
 build/asm/3B230.s.o(.text)
 .text          0x000000008003a630     0x1230 build/asm/3B230.s.o
                0x000000008003a630                func_8003A630
                0x000000008003a6a0                func_8003A6A0
                0x000000008003a6d4                func_8003A6D4
                0x000000008003a6dc                func_8003A6DC
                0x000000008003a8ac                func_8003A8AC
                0x000000008003a8f0                .L8003A8F0
                0x000000008003ac90                .L8003AC90
                0x000000008003ace8                .L8003ACE8
                0x000000008003ad4c                .L8003AD4C
                0x000000008003adc0                .L8003ADC0
                0x000000008003aff8                .L8003AFF8
                0x000000008003b02c                .L8003B02C
                0x000000008003b0c4                .L8003B0C4
                0x000000008003b0d4                func_8003B0D4
                0x000000008003b0dc                func_8003B0DC
                0x000000008003b140                .L8003B140
                0x000000008003b17c                .L8003B17C
                0x000000008003b1a4                .L8003B1A4
                0x000000008003b1d0                .L8003B1D0
                0x000000008003b1fc                .L8003B1FC
                0x000000008003b20c                .L8003B20C
                0x000000008003b22c                .L8003B22C
                0x000000008003b278                .L8003B278
                0x000000008003b2dc                .L8003B2DC
                0x000000008003b3e8                .L8003B3E8
                0x000000008003b470                .L8003B470
                0x000000008003b48c                .L8003B48C
                0x000000008003b4ac                .L8003B4AC
                0x000000008003b510                .L8003B510
                0x000000008003b534                .L8003B534
                0x000000008003b5a0                .L8003B5A0
                0x000000008003b63c                .L8003B63C
                0x000000008003b658                .L8003B658
                0x000000008003b68c                .L8003B68C
                0x000000008003b69c                .L8003B69C
                0x000000008003b6f0                func_8003B6F0
 build/asm/3C460.s.o(.text)
 .text          0x000000008003b860      0x250 build/asm/3C460.s.o
                0x000000008003b860                func_8003B860
                0x000000008003b868                func_8003B868
                0x000000008003b870                func_8003B870
                0x000000008003b95c                func_8003B95C
                0x000000008003b964                func_8003B964
                0x000000008003ba68                func_8003BA68
 build/asm/3C6B0.s.o(.text)
 .text          0x000000008003bab0       0x40 build/asm/3C6B0.s.o
                0x000000008003bab0                func_8003BAB0
 build/asm/3C6F0.s.o(.text)
 .text          0x000000008003baf0      0xac0 build/asm/3C6F0.s.o
                0x000000008003baf0                func_8003BAF0
                0x000000008003bb90                func_8003BB90
                0x000000008003bc30                func_8003BC30
                0x000000008003bcf4                func_8003BCF4
                0x000000008003bd4c                func_8003BD4C
                0x000000008003bd54                func_8003BD54
                0x000000008003c04c                func_8003C04C
                0x000000008003c160                func_8003C160
                0x000000008003c2cc                func_8003C2CC
                0x000000008003c2d4                func_8003C2D4
                0x000000008003c3d0                func_8003C3D0
                0x000000008003c43c                func_8003C43C
 build/asm/3D1B0.s.o(.text)
 .text          0x000000008003c5b0       0x40 build/asm/3D1B0.s.o
                0x000000008003c5b0                func_8003C5B0
 build/asm/3D1F0.s.o(.text)
 .text          0x000000008003c5f0       0x90 build/asm/3D1F0.s.o
                0x000000008003c5f0                func_8003C5F0
                0x000000008003c620                func_8003C620
 build/asm/3D280.s.o(.text)
 .text          0x000000008003c680       0x40 build/asm/3D280.s.o
                0x000000008003c680                func_8003C680
                0x000000008003c6b0                func_8003C6B0
 build/asm/3D2C0.s.o(.text)
 .text          0x000000008003c6c0      0x710 build/asm/3D2C0.s.o
                0x000000008003c6c0                func_8003C6C0
                0x000000008003c73c                func_8003C73C
                0x000000008003c744                func_8003C744
                0x000000008003c74c                func_8003C74C
                0x000000008003c7e8                .L8003C7E8
                0x000000008003c950                .L8003C950
                0x000000008003ca1c                .L8003CA1C
                0x000000008003ca84                .L8003CA84
                0x000000008003cad8                .L8003CAD8
                0x000000008003cb00                .L8003CB00
                0x000000008003cb64                .L8003CB64
                0x000000008003cc10                .L8003CC10
                0x000000008003cc40                .L8003CC40
                0x000000008003cc94                func_8003CC94
 build/asm/3D9D0.s.o(.text)
 .text          0x000000008003cdd0       0xa0 build/asm/3D9D0.s.o
                0x000000008003cdd0                func_8003CDD0
 build/asm/3DA70.s.o(.text)
 .text          0x000000008003ce70       0x20 build/asm/3DA70.s.o
                0x000000008003ce70                func_8003CE70
 build/asm/3DA90.s.o(.text)
 .text          0x000000008003ce90       0x90 build/asm/3DA90.s.o
                0x000000008003ce90                func_8003CE90
                0x000000008003ceb0                func_8003CEB0
 build/asm/3DB20.s.o(.text)
 .text          0x000000008003cf20       0x60 build/asm/3DB20.s.o
                0x000000008003cf20                func_8003CF20
 build/asm/3DB80.s.o(.text)
 .text          0x000000008003cf80       0x50 build/asm/3DB80.s.o
                0x000000008003cf80                func_8003CF80
 build/asm/3DBD0.s.o(.text)
 .text          0x000000008003cfd0       0x60 build/asm/3DBD0.s.o
                0x000000008003cfd0                func_8003CFD0
 build/asm/3DC30.s.o(.text)
 .text          0x000000008003d030       0x60 build/asm/3DC30.s.o
                0x000000008003d030                func_8003D030
 build/asm/3DC90.s.o(.text)
 .text          0x000000008003d090       0x60 build/asm/3DC90.s.o
                0x000000008003d090                func_8003D090
 build/asm/3DCF0.s.o(.text)
 .text          0x000000008003d0f0      0x7e0 build/asm/3DCF0.s.o
                0x000000008003d0f0                func_8003D0F0
                0x000000008003d2e0                func_8003D2E0
                0x000000008003d448                func_8003D448
                0x000000008003d554                func_8003D554
                0x000000008003d6b0                func_8003D6B0
 build/asm/3E4D0.s.o(.text)
 .text          0x000000008003d8d0       0x40 build/asm/3E4D0.s.o
                0x000000008003d8d0                func_8003D8D0
                0x000000008003d8ec                func_8003D8EC
 build/asm/3E510.s.o(.text)
 .text          0x000000008003d910      0x340 build/asm/3E510.s.o
                0x000000008003d910                func_8003D910
                0x000000008003da80                func_8003DA80
                0x000000008003db50                func_8003DB50
 build/asm/3E850.s.o(.text)
 .text          0x000000008003dc50       0x70 build/asm/3E850.s.o
                0x000000008003dc50                func_8003DC50
 build/asm/3E8C0.s.o(.text)
 .text          0x000000008003dcc0      0x1e0 build/asm/3E8C0.s.o
                0x000000008003dcc0                func_8003DCC0
                0x000000008003dd44                func_8003DD44
                0x000000008003ddd0                func_8003DDD0
 build/asm/3EAA0.s.o(.text)
 .text          0x000000008003dea0      0x1e0 build/asm/3EAA0.s.o
                0x000000008003dea0                func_8003DEA0
 build/asm/3EC80.s.o(.text)
 .text          0x000000008003e080      0x1a0 build/asm/3EC80.s.o
                0x000000008003e080                func_8003E080
 build/asm/3EE20.s.o(.text)
 .text          0x000000008003e220      0x480 build/asm/3EE20.s.o
                0x000000008003e220                func_8003E220
                0x000000008003e554                func_8003E554
 build/asm/3F2A0.s.o(.text)
 .text          0x000000008003e6a0      0x270 build/asm/3F2A0.s.o
                0x000000008003e6a0                func_8003E6A0
                0x000000008003e878                func_8003E878
 build/asm/3F510.s.o(.text)
 .text          0x000000008003e910      0x450 build/asm/3F510.s.o
                0x000000008003e910                func_8003E910
                0x000000008003e9e4                func_8003E9E4
 build/asm/3F960.s.o(.text)
 .text          0x000000008003ed60       0x60 build/asm/3F960.s.o
                0x000000008003ed60                func_8003ED60
 build/asm/3F9C0.s.o(.text)
 .text          0x000000008003edc0      0x1d0 build/asm/3F9C0.s.o
                0x000000008003edc0                func_8003EDC0
                0x000000008003eee0                func_8003EEE0
                0x000000008003ef64                func_8003EF64
 build/asm/3FB90.s.o(.text)
 .text          0x000000008003ef90       0x20 build/asm/3FB90.s.o
                0x000000008003ef90                func_8003EF90
                0x000000008003efa0                func_8003EFA0
 build/asm/3FBB0.s.o(.text)
 .text          0x000000008003efb0       0xb0 build/asm/3FBB0.s.o
                0x000000008003efb0                func_8003EFB0
                0x000000008003efc0                func_8003EFC0
                0x000000008003f010                func_8003F010
 build/asm/3FC60.s.o(.text)
 .text          0x000000008003f060      0x950 build/asm/3FC60.s.o
                0x000000008003f060                func_8003F060
                0x000000008003f2a8                .L8003F2A8
                0x000000008003f2b4                .L8003F2B4
                0x000000008003f2c0                .L8003F2C0
                0x000000008003f2e0                .L8003F2E0
                0x000000008003f324                .L8003F324
                0x000000008003f464                .L8003F464
                0x000000008003f4c0                .L8003F4C0
                0x000000008003f4e0                .L8003F4E0
                0x000000008003f518                .L8003F518
                0x000000008003f594                func_8003F594
                0x000000008003f67c                func_8003F67C
                0x000000008003f77c                func_8003F77C
                0x000000008003f7c4                func_8003F7C4
                0x000000008003f7d4                func_8003F7D4
                0x000000008003f960                func_8003F960
 build/asm/405B0.s.o(.text)
 .text          0x000000008003f9b0       0x60 build/asm/405B0.s.o
                0x000000008003f9b0                func_8003F9B0
 build/asm/40610.s.o(.text)
 .text          0x000000008003fa10       0x60 build/asm/40610.s.o
                0x000000008003fa10                func_8003FA10
 build/asm/40670.s.o(.text)
 .text          0x000000008003fa70       0xa0 build/asm/40670.s.o
                0x000000008003fa70                func_8003FA70
 build/asm/40710.s.o(.text)
 .text          0x000000008003fb10       0x40 build/asm/40710.s.o
                0x000000008003fb10                func_8003FB10
                0x000000008003fb30                func_8003FB30
 build/asm/40750.s.o(.text)
 .text          0x000000008003fb50      0x120 build/asm/40750.s.o
                0x000000008003fb50                func_8003FB50
                0x000000008003fb90                func_8003FB90
                0x000000008003fbe0                func_8003FBE0
                0x000000008003fc24                func_8003FC24
                0x000000008003fc50                func_8003FC50
 build/asm/40870.s.o(.text)
 .text          0x000000008003fc70      0x3f0 build/asm/40870.s.o
                0x000000008003fc70                func_8003FC70
                0x000000008003fd50                func_8003FD50
                0x000000008003fe30                func_8003FE30
 build/asm/40C60.s.o(.text)
 .text          0x0000000080040060      0x5d0 build/asm/40C60.s.o
                0x0000000080040060                func_80040060
                0x0000000080040354                .L80040354
                0x0000000080040390                .L80040390
                0x00000000800403cc                .L800403CC
                0x0000000080040414                .L80040414
                0x000000008004045c                .L8004045C
                0x000000008004047c                .L8004047C
                0x00000000800404f0                func_800404F0
 build/asm/41230.s.o(.text)
 .text          0x0000000080040630       0x10 build/asm/41230.s.o
                0x0000000080040630                func_80040630
 build/asm/41240.s.o(.text)
 .text          0x0000000080040640       0x10 build/asm/41240.s.o
                0x0000000080040640                func_80040640
 build/asm/41250.s.o(.text)
 .text          0x0000000080040650      0x350 build/asm/41250.s.o
                0x0000000080040650                func_80040650
                0x0000000080040960                func_80040960
 build/asm/415A0.s.o(.text)
 .text          0x00000000800409a0       0x90 build/asm/415A0.s.o
                0x00000000800409a0                func_800409A0
 build/asm/41630.s.o(.text)
 .text          0x0000000080040a30       0x30 build/asm/41630.s.o
                0x0000000080040a30                func_80040A30
 build/asm/41660.s.o(.text)
 .text          0x0000000080040a60      0x410 build/asm/41660.s.o
                0x0000000080040a60                func_80040A60
                0x0000000080040aec                func_80040AEC
                0x0000000080040c64                func_80040C64
                0x0000000080040cd8                func_80040CD8
                0x0000000080040e60                func_80040E60
 build/asm/41A70.s.o(.text)
 .text          0x0000000080040e70      0x300 build/asm/41A70.s.o
                0x0000000080040e70                func_80040E70
 build/asm/41D70.s.o(.text)
 .text          0x0000000080041170       0x10 build/asm/41D70.s.o
                0x0000000080041170                func_80041170
 build/asm/41D80.s.o(.text)
 .text          0x0000000080041180       0xc0 build/asm/41D80.s.o
                0x0000000080041180                func_80041180
 build/asm/41E40.s.o(.text)
 .text          0x0000000080041240      0xcc0 build/asm/41E40.s.o
                0x0000000080041240                func_80041240
                0x00000000800412b0                .L800412B0
                0x00000000800412e8                .L800412E8
                0x0000000080041458                .L80041458
                0x00000000800415a8                .L800415A8
                0x000000008004170c                .L8004170C
                0x00000000800417dc                .L800417DC
                0x0000000080041824                .L80041824
                0x0000000080041888                .L80041888
                0x00000000800418b0                func_800418B0
 build/asm/42B00.s.o(.text)
 .text          0x0000000080041f00       0xa0 build/asm/42B00.s.o
                0x0000000080041f00                func_80041F00
                0x0000000080041f2c                func_80041F2C
                0x0000000080041f54                func_80041F54
 build/asm/42BA0.s.o(.text)
 .text          0x0000000080041fa0      0x180 build/asm/42BA0.s.o
                0x0000000080041fa0                func_80041FA0
                0x00000000800420f0                func_800420F0
 build/asm/42D20.s.o(.text)
 .text          0x0000000080042120       0x10 build/asm/42D20.s.o
                0x0000000080042120                func_80042120
 build/asm/42D30.s.o(.text)
 .text          0x0000000080042130      0xae0 build/asm/42D30.s.o
                0x0000000080042130                func_80042130
                0x00000000800421dc                func_800421DC
                0x000000008004224c                func_8004224C
                0x0000000080042370                func_80042370
                0x00000000800423fc                func_800423FC
                0x0000000080042470                func_80042470
                0x00000000800424b4                func_800424B4
                0x0000000080042508                func_80042508
                0x000000008004255c                func_8004255C
                0x00000000800425e4                func_800425E4
                0x000000008004268c                func_8004268C
                0x0000000080042730                func_80042730
                0x00000000800427d0                func_800427D0
                0x0000000080042878                .L80042878
                0x0000000080042884                .L80042884
                0x0000000080042890                .L80042890
                0x000000008004289c                .L8004289C
                0x00000000800428a8                .L800428A8
                0x00000000800428b4                .L800428B4
 build/asm/43810.s.o(.text)
 .text          0x0000000080042c10       0xa0 build/asm/43810.s.o
                0x0000000080042c10                func_80042C10
 build/asm/438B0.s.o(.text)
 .text          0x0000000080042cb0      0xca0 build/asm/438B0.s.o
                0x0000000080042cb0                func_80042CB0
                0x0000000080042ce0                func_80042CE0
                0x0000000080042e00                func_80042E00
                0x0000000080042fd4                func_80042FD4
                0x0000000080043380                func_80043380
                0x00000000800434ac                func_800434AC
 build/asm/44550.s.o(.text)
 .text          0x0000000080043950      0x300 build/asm/44550.s.o
                0x0000000080043950                func_80043950
                0x0000000080043980                .L80043980
                0x0000000080043988                .L80043988
                0x00000000800439c4                .L800439C4
                0x00000000800439f4                .L800439F4
                0x0000000080043a04                .L80043A04
                0x0000000080043a10                .L80043A10
                0x0000000080043a3c                func_80043A3C
 build/asm/44850.s.o(.text)
 .text          0x0000000080043c50      0xc60 build/asm/44850.s.o
                0x0000000080043c50                func_80043C50
                0x0000000080043c78                func_80043C78
                0x0000000080043d64                func_80043D64
                0x0000000080043e44                func_80043E44
                0x0000000080044014                func_80044014
                0x00000000800442ac                func_800442AC
                0x000000008004435c                func_8004435C
                0x0000000080044410                .L80044410
                0x0000000080044550                .L80044550
                0x00000000800446f4                .L800446F4
                0x0000000080044748                .L80044748
                0x0000000080044788                .L80044788
                0x00000000800447a8                .L800447A8
 build/asm/454B0.s.o(.text)
 .text          0x00000000800448b0      0x110 build/asm/454B0.s.o
                0x00000000800448b0                func_800448B0
                0x00000000800448e0                func_800448E0
 build/asm/455C0.s.o(.text)
 .text          0x00000000800449c0     0x1a30 build/asm/455C0.s.o
                0x00000000800449c0                func_800449C0
                0x00000000800449f4                func_800449F4
                0x0000000080044a80                func_80044A80
                0x0000000080044ab0                func_80044AB0
                0x0000000080044b04                func_80044B04
                0x0000000080044b84                func_80044B84
                0x0000000080044c38                func_80044C38
                0x0000000080044c40                func_80044C40
                0x0000000080044c64                func_80044C64
                0x0000000080044cec                func_80044CEC
                0x0000000080044e18                func_80044E18
                0x0000000080044ec0                func_80044EC0
                0x0000000080044f30                func_80044F30
                0x000000008004500c                func_8004500C
                0x0000000080045084                func_80045084
                0x00000000800450cc                func_800450CC
                0x0000000080045140                func_80045140
                0x00000000800451b0                func_800451B0
                0x00000000800452ac                func_800452AC
                0x00000000800452f0                .L800452F0
                0x0000000080045644                .L80045644
                0x000000008004569c                .L8004569C
                0x0000000080045704                .L80045704
                0x000000008004577c                .L8004577C
                0x00000000800457e4                .L800457E4
                0x0000000080045840                .L80045840
                0x00000000800458d4                .L800458D4
                0x00000000800459e8                .L800459E8
                0x0000000080045a1c                .L80045A1C
                0x0000000080045ab4                .L80045AB4
                0x0000000080045ac4                func_80045AC4
                0x0000000080045acc                func_80045ACC
                0x0000000080045b30                .L80045B30
                0x0000000080045bdc                .L80045BDC
                0x0000000080045bfc                .L80045BFC
                0x0000000080045c48                .L80045C48
                0x0000000080045cac                .L80045CAC
                0x0000000080045dbc                .L80045DBC
                0x0000000080045e44                .L80045E44
                0x0000000080045e64                .L80045E64
                0x0000000080045e78                .L80045E78
                0x0000000080045e9c                .L80045E9C
                0x0000000080045f0c                .L80045F0C
                0x0000000080045f9c                .L80045F9C
                0x0000000080046004                .L80046004
                0x0000000080046020                .L80046020
                0x000000008004603c                .L8004603C
                0x000000008004608c                .L8004608C
                0x000000008004609c                .L8004609C
                0x00000000800460f0                func_800460F0
                0x00000000800461f4                func_800461F4
                0x0000000080046264                func_80046264
 build/asm/46FF0.s.o(.text)
 .text          0x00000000800463f0       0xd0 build/asm/46FF0.s.o
                0x00000000800463f0                func_800463F0
                0x0000000080046440                func_80046440
 build/asm/470C0.s.o(.text)
 .text          0x00000000800464c0      0x150 build/asm/470C0.s.o
                0x00000000800464c0                func_800464C0
                0x0000000080046570                func_80046570
 build/asm/47210.s.o(.text)
 .text          0x0000000080046610       0x90 build/asm/47210.s.o
                0x0000000080046610                func_80046610
 build/asm/472A0.s.o(.text)
 .text          0x00000000800466a0      0x230 build/asm/472A0.s.o
                0x00000000800466a0                func_800466A0
                0x0000000080046788                func_80046788
 build/asm/474D0.s.o(.text)
 .text          0x00000000800468d0      0x140 build/asm/474D0.s.o
                0x00000000800468d0                func_800468D0
                0x0000000080046920                func_80046920
 build/asm/47610.s.o(.text)
 .text          0x0000000080046a10       0x90 build/asm/47610.s.o
                0x0000000080046a10                func_80046A10
 build/asm/476A0.s.o(.text)
 .text          0x0000000080046aa0       0xa0 build/asm/476A0.s.o
                0x0000000080046aa0                func_80046AA0
 build/asm/47740.s.o(.text)
 .text          0x0000000080046b40       0x90 build/asm/47740.s.o
                0x0000000080046b40                func_80046B40
 build/asm/477D0.s.o(.text)
 .text          0x0000000080046bd0      0x2f0 build/asm/477D0.s.o
                0x0000000080046bd0                func_80046BD0
                0x0000000080046c20                func_80046C20
                0x0000000080046c64                func_80046C64
                0x0000000080046c90                func_80046C90
                0x0000000080046d60                func_80046D60
                0x0000000080046e24                func_80046E24
 build/asm/47AC0.s.o(.text)
 .text          0x0000000080046ec0       0x80 build/asm/47AC0.s.o
                0x0000000080046ec0                func_80046EC0
 build/asm/47B40.s.o(.text)
 .text          0x0000000080046f40      0x230 build/asm/47B40.s.o
                0x0000000080046f40                func_80046F40
 build/asm/47D70.s.o(.text)
 .text          0x0000000080047170      0xb80 build/asm/47D70.s.o
                0x0000000080047170                func_80047170
                0x00000000800471e4                func_800471E4
                0x00000000800472e0                func_800472E0
                0x0000000080047630                func_80047630
                0x0000000080047794                func_80047794
                0x0000000080047940                func_80047940
                0x0000000080047a14                func_80047A14
 build/asm/488F0.s.o(.text)
 .text          0x0000000080047cf0      0xa50 build/asm/488F0.s.o
                0x0000000080047cf0                func_80047CF0
                0x0000000080048228                func_80048228
                0x00000000800484f4                func_800484F4
                0x0000000080048690                func_80048690
 build/asm/49340.s.o(.text)
 .text          0x0000000080048740      0x170 build/asm/49340.s.o
                0x0000000080048740                func_80048740
                0x0000000080048810                func_80048810
 build/asm/494B0.s.o(.text)
 .text          0x00000000800488b0      0x250 build/asm/494B0.s.o
                0x00000000800488b0                func_800488B0
 build/asm/49700.s.o(.text)
 .text          0x0000000080048b00       0xe0 build/asm/49700.s.o
                0x0000000080048b00                func_80048B00
 build/asm/497E0.s.o(.text)
 .text          0x0000000080048be0      0x1b0 build/asm/497E0.s.o
                0x0000000080048be0                func_80048BE0
 build/asm/49990.s.o(.text)
 .text          0x0000000080048d90       0x30 build/asm/49990.s.o
                0x0000000080048d90                func_80048D90
 build/asm/499C0.s.o(.text)
 .text          0x0000000080048dc0      0x110 build/asm/499C0.s.o
                0x0000000080048dc0                func_80048DC0
 build/asm/49AD0.s.o(.text)
 .text          0x0000000080048ed0       0x60 build/asm/49AD0.s.o
                0x0000000080048ed0                func_80048ED0
 build/asm/49B30.s.o(.text)
 .text          0x0000000080048f30      0x330 build/asm/49B30.s.o
                0x0000000080048f30                func_80048F30
                0x00000000800490c0                func_800490C0
 build/asm/49E60.s.o(.text)
 .text          0x0000000080049260       0x50 build/asm/49E60.s.o
                0x0000000080049260                func_80049260
 build/asm/49EB0.s.o(.text)
 .text          0x00000000800492b0       0x50 build/asm/49EB0.s.o
                0x00000000800492b0                func_800492B0
 build/asm/49F00.s.o(.text)
 .text          0x0000000080049300       0x10 build/asm/49F00.s.o
                0x0000000080049300                func_80049300
 build/asm/49F10.s.o(.text)
 .text          0x0000000080049310      0x2a0 build/asm/49F10.s.o
                0x0000000080049310                func_80049310
 build/asm/4A1B0.s.o(.text)
 .text          0x00000000800495b0      0xac0 build/asm/4A1B0.s.o
                0x00000000800495b0                func_800495B0
                0x0000000080049b18                func_80049B18
                0x0000000080049b20                func_80049B20
 build/asm/4AC70.s.o(.text)
 .text          0x000000008004a070       0x80 build/asm/4AC70.s.o
                0x000000008004a070                func_8004A070
 build/asm/4ACF0.s.o(.text)
 .text          0x000000008004a0f0       0x20 build/asm/4ACF0.s.o
                0x000000008004a0f0                func_8004A0F0
 build/asm/4AD10.s.o(.text)
 .text          0x000000008004a110      0xc50 build/asm/4AD10.s.o
                0x000000008004a110                func_8004A110
                0x000000008004a1b8                func_8004A1B8
                0x000000008004a270                func_8004A270
                0x000000008004a3f8                func_8004A3F8
                0x000000008004a584                func_8004A584
                0x000000008004a7a8                func_8004A7A8
                0x000000008004a7e0                .L8004A7E0
                0x000000008004a814                .L8004A814
                0x000000008004a848                .L8004A848
                0x000000008004a874                .L8004A874
                0x000000008004a8a0                .L8004A8A0
                0x000000008004a8cc                .L8004A8CC
                0x000000008004a934                .L8004A934
                0x000000008004a9ac                .L8004A9AC
                0x000000008004aa04                func_8004AA04
                0x000000008004aa1c                func_8004AA1C
 build/asm/4B960.s.o(.text)
 .text          0x000000008004ad60      0xa90 build/asm/4B960.s.o
                0x000000008004ad60                func_8004AD60
                0x000000008004ad7c                func_8004AD7C
                0x000000008004ad98                func_8004AD98
                0x000000008004ada0                func_8004ADA0
                0x000000008004ada8                func_8004ADA8
                0x000000008004adf4                func_8004ADF4
                0x000000008004af78                func_8004AF78
                0x000000008004b098                func_8004B098
                0x000000008004b17c                func_8004B17C
                0x000000008004b1d0                func_8004B1D0
                0x000000008004b228                func_8004B228
                0x000000008004b278                func_8004B278
                0x000000008004b2a8                func_8004B2A8
                0x000000008004b380                func_8004B380
                0x000000008004b390                func_8004B390
                0x000000008004b530                func_8004B530
                0x000000008004b600                func_8004B600
                0x000000008004b6d0                func_8004B6D0
 build/asm/4C3F0.s.o(.text)
 .text          0x000000008004b7f0      0x190 build/asm/4C3F0.s.o
                0x000000008004b7f0                func_8004B7F0
                0x000000008004b8f0                func_8004B8F0
                0x000000008004b980                main_TEXT_END = .
                0x000000000004b580                main_TEXT_SIZE = ABSOLUTE ((main_TEXT_END - main_TEXT_START))
                0x000000008004b980                main_DATA_START = .
                0x000000008004b980                _4C580_bin = .
 build/assets/4C580.bin.o(.data)
 .data          0x000000008004b980      0x230 build/assets/4C580.bin.o
                0x000000008004b980                _binary_assets_4C580_bin_start
                0x000000008004bbb0                _binary_assets_4C580_bin_end
                0x000000008004bbb0                _1000_c = .
 build/src/1000.c.o(.data)
                0x000000008004bbb0                _1130_c = .
 build/src/1130.c.o(.data)
                0x000000008004bbb0                _1870_s = .
 build/asm/1870.s.o(.data)
 .data          0x000000008004bbb0        0x0 build/asm/1870.s.o
                0x000000008004bbb0                _3B40_s = .
 build/asm/3B40.s.o(.data)
 .data          0x000000008004bbb0        0x0 build/asm/3B40.s.o
                0x000000008004bbb0                _3F50_s = .
 build/asm/3F50.s.o(.data)
 .data          0x000000008004bbb0        0x0 build/asm/3F50.s.o
                0x000000008004bbb0                _9D50_s = .
 build/asm/9D50.s.o(.data)
 .data          0x000000008004bbb0        0x0 build/asm/9D50.s.o
                0x000000008004bbb0                DAE0_s = .
 build/asm/DAE0.s.o(.data)
 .data          0x000000008004bbb0        0x0 build/asm/DAE0.s.o
                0x000000008004bbb0                E2A0_s = .
 build/asm/E2A0.s.o(.data)
 .data          0x000000008004bbb0        0x0 build/asm/E2A0.s.o
                0x000000008004bbb0                _113F0_s = .
 build/asm/113F0.s.o(.data)
 .data          0x000000008004bbb0        0x0 build/asm/113F0.s.o
                0x000000008004bbb0                _13DE0_s = .
 build/asm/13DE0.s.o(.data)
 .data          0x000000008004bbb0        0x0 build/asm/13DE0.s.o
                0x000000008004bbb0                _140D0_s = .
 build/asm/140D0.s.o(.data)
 .data          0x000000008004bbb0        0x0 build/asm/140D0.s.o
                0x000000008004bbb0                _15150_s = .
 build/asm/15150.s.o(.data)
 .data          0x000000008004bbb0        0x0 build/asm/15150.s.o
                0x000000008004bbb0                _17360_s = .
 build/asm/17360.s.o(.data)
 .data          0x000000008004bbb0        0x0 build/asm/17360.s.o
                0x000000008004bbb0                _1B200_s = .
 build/asm/1B200.s.o(.data)
 .data          0x000000008004bbb0        0x0 build/asm/1B200.s.o
                0x000000008004bbb0                _1E570_s = .
 build/asm/1E570.s.o(.data)
 .data          0x000000008004bbb0        0x0 build/asm/1E570.s.o
                0x000000008004bbb0                _1FA00_s = .
 build/asm/1FA00.s.o(.data)
 .data          0x000000008004bbb0        0x0 build/asm/1FA00.s.o
                0x000000008004bbb0                _20DA0_s = .
 build/asm/20DA0.s.o(.data)
 .data          0x000000008004bbb0        0x0 build/asm/20DA0.s.o
                0x000000008004bbb0                _216E0_s = .
 build/asm/216E0.s.o(.data)
 .data          0x000000008004bbb0        0x0 build/asm/216E0.s.o
                0x000000008004bbb0                _272D0_s = .
 build/asm/272D0.s.o(.data)
 .data          0x000000008004bbb0        0x0 build/asm/272D0.s.o
                0x000000008004bbb0                _27600_s = .
 build/asm/27600.s.o(.data)
 .data          0x000000008004bbb0        0x0 build/asm/27600.s.o
                0x000000008004bbb0                _27A90_s = .
 build/asm/27A90.s.o(.data)
 .data          0x000000008004bbb0        0x0 build/asm/27A90.s.o
                0x000000008004bbb0                _28D20_s = .
 build/asm/28D20.s.o(.data)
 .data          0x000000008004bbb0        0x0 build/asm/28D20.s.o
                0x000000008004bbb0                _29150_s = .
 build/asm/29150.s.o(.data)
 .data          0x000000008004bbb0        0x0 build/asm/29150.s.o
                0x000000008004bbb0                _2B0F0_s = .
 build/asm/2B0F0.s.o(.data)
 .data          0x000000008004bbb0        0x0 build/asm/2B0F0.s.o
                0x000000008004bbb0                _337B0_s = .
 build/asm/337B0.s.o(.data)
 .data          0x000000008004bbb0        0x0 build/asm/337B0.s.o
                0x000000008004bbb0                _35EC0_s = .
 build/asm/35EC0.s.o(.data)
 .data          0x000000008004bbb0        0x0 build/asm/35EC0.s.o
                0x000000008004bbb0                _363B0_s = .
 build/asm/363B0.s.o(.data)
 .data          0x000000008004bbb0        0x0 build/asm/363B0.s.o
                0x000000008004bbb0                _36DB0_s = .
 build/asm/36DB0.s.o(.data)
 .data          0x000000008004bbb0        0x0 build/asm/36DB0.s.o
                0x000000008004bbb0                _36E60_s = .
 build/asm/36E60.s.o(.data)
 .data          0x000000008004bbb0        0x0 build/asm/36E60.s.o
                0x000000008004bbb0                _376C0_s = .
 build/asm/376C0.s.o(.data)
 .data          0x000000008004bbb0        0x0 build/asm/376C0.s.o
                0x000000008004bbb0                _37980_s = .
 build/asm/37980.s.o(.data)
 .data          0x000000008004bbb0        0x0 build/asm/37980.s.o
                0x000000008004bbb0                _37AD0_s = .
 build/asm/37AD0.s.o(.data)
 .data          0x000000008004bbb0        0x0 build/asm/37AD0.s.o
                0x000000008004bbb0                _37E40_s = .
 build/asm/37E40.s.o(.data)
 .data          0x000000008004bbb0        0x0 build/asm/37E40.s.o
                0x000000008004bbb0                _37EB0_s = .
 build/asm/37EB0.s.o(.data)
 .data          0x000000008004bbb0        0x0 build/asm/37EB0.s.o
                0x000000008004bbb0                _37F20_s = .
 build/asm/37F20.s.o(.data)
 .data          0x000000008004bbb0        0x0 build/asm/37F20.s.o
                0x000000008004bbb0                _38060_s = .
 build/asm/38060.s.o(.data)
 .data          0x000000008004bbb0        0x0 build/asm/38060.s.o
                0x000000008004bbb0                _382C0_s = .
 build/asm/382C0.s.o(.data)
 .data          0x000000008004bbb0        0x0 build/asm/382C0.s.o
                0x000000008004bbb0                _382F0_s = .
 build/asm/382F0.s.o(.data)
 .data          0x000000008004bbb0        0x0 build/asm/382F0.s.o
                0x000000008004bbb0                _38680_s = .
 build/asm/38680.s.o(.data)
 .data          0x000000008004bbb0        0x0 build/asm/38680.s.o
                0x000000008004bbb0                _38770_s = .
 build/asm/38770.s.o(.data)
 .data          0x000000008004bbb0        0x0 build/asm/38770.s.o
                0x000000008004bbb0                _38A80_s = .
 build/asm/38A80.s.o(.data)
 .data          0x000000008004bbb0        0x0 build/asm/38A80.s.o
                0x000000008004bbb0                _38AF0_s = .
 build/asm/38AF0.s.o(.data)
 .data          0x000000008004bbb0        0x0 build/asm/38AF0.s.o
                0x000000008004bbb0                _38CB0_s = .
 build/asm/38CB0.s.o(.data)
 .data          0x000000008004bbb0        0x0 build/asm/38CB0.s.o
                0x000000008004bbb0                _38D30_s = .
 build/asm/38D30.s.o(.data)
 .data          0x000000008004bbb0        0x0 build/asm/38D30.s.o
                0x000000008004bbb0                _38DB0_s = .
 build/asm/38DB0.s.o(.data)
 .data          0x000000008004bbb0        0x0 build/asm/38DB0.s.o
                0x000000008004bbb0                _38E40_s = .
 build/asm/38E40.s.o(.data)
 .data          0x000000008004bbb0        0x0 build/asm/38E40.s.o
                0x000000008004bbb0                _39110_s = .
 build/asm/39110.s.o(.data)
 .data          0x000000008004bbb0        0x0 build/asm/39110.s.o
                0x000000008004bbb0                _39330_s = .
 build/asm/39330.s.o(.data)
 .data          0x000000008004bbb0        0x0 build/asm/39330.s.o
                0x000000008004bbb0                _39610_s = .
 build/asm/39610.s.o(.data)
 .data          0x000000008004bbb0        0x0 build/asm/39610.s.o
                0x000000008004bbb0                _39820_s = .
 build/asm/39820.s.o(.data)
 .data          0x000000008004bbb0        0x0 build/asm/39820.s.o
                0x000000008004bbb0                _39BA0_s = .
 build/asm/39BA0.s.o(.data)
 .data          0x000000008004bbb0        0x0 build/asm/39BA0.s.o
                0x000000008004bbb0                _39E30_s = .
 build/asm/39E30.s.o(.data)
 .data          0x000000008004bbb0        0x0 build/asm/39E30.s.o
                0x000000008004bbb0                _3A2C0_s = .
 build/asm/3A2C0.s.o(.data)
 .data          0x000000008004bbb0        0x0 build/asm/3A2C0.s.o
                0x000000008004bbb0                _3A360_s = .
 build/asm/3A360.s.o(.data)
 .data          0x000000008004bbb0        0x0 build/asm/3A360.s.o
                0x000000008004bbb0                _3A4D0_s = .
 build/asm/3A4D0.s.o(.data)
 .data          0x000000008004bbb0        0x0 build/asm/3A4D0.s.o
                0x000000008004bbb0                _3A550_s = .
 build/asm/3A550.s.o(.data)
 .data          0x000000008004bbb0        0x0 build/asm/3A550.s.o
                0x000000008004bbb0                _3A5D0_s = .
 build/asm/3A5D0.s.o(.data)
 .data          0x000000008004bbb0        0x0 build/asm/3A5D0.s.o
                0x000000008004bbb0                _3A680_s = .
 build/asm/3A680.s.o(.data)
 .data          0x000000008004bbb0        0x0 build/asm/3A680.s.o
                0x000000008004bbb0                _3A790_s = .
 build/asm/3A790.s.o(.data)
 .data          0x000000008004bbb0        0x0 build/asm/3A790.s.o
                0x000000008004bbb0                _3A7D0_s = .
 build/asm/3A7D0.s.o(.data)
 .data          0x000000008004bbb0        0x0 build/asm/3A7D0.s.o
                0x000000008004bbb0                _3A830_s = .
 build/asm/3A830.s.o(.data)
 .data          0x000000008004bbb0        0x0 build/asm/3A830.s.o
                0x000000008004bbb0                _3A980_s = .
 build/asm/3A980.s.o(.data)
 .data          0x000000008004bbb0        0x0 build/asm/3A980.s.o
                0x000000008004bbb0                _3AA80_s = .
 build/asm/3AA80.s.o(.data)
 .data          0x000000008004bbb0        0x0 build/asm/3AA80.s.o
                0x000000008004bbb0                _3B170_s = .
 build/asm/3B170.s.o(.data)
 .data          0x000000008004bbb0        0x0 build/asm/3B170.s.o
                0x000000008004bbb0                _3B220_s = .
 build/asm/3B220.s.o(.data)
 .data          0x000000008004bbb0        0x0 build/asm/3B220.s.o
                0x000000008004bbb0                _3B230_s = .
 build/asm/3B230.s.o(.data)
 .data          0x000000008004bbb0        0x0 build/asm/3B230.s.o
                0x000000008004bbb0                _3C460_s = .
 build/asm/3C460.s.o(.data)
 .data          0x000000008004bbb0        0x0 build/asm/3C460.s.o
                0x000000008004bbb0                _3C6B0_s = .
 build/asm/3C6B0.s.o(.data)
 .data          0x000000008004bbb0        0x0 build/asm/3C6B0.s.o
                0x000000008004bbb0                _3C6F0_s = .
 build/asm/3C6F0.s.o(.data)
 .data          0x000000008004bbb0        0x0 build/asm/3C6F0.s.o
                0x000000008004bbb0                _3D1B0_s = .
 build/asm/3D1B0.s.o(.data)
 .data          0x000000008004bbb0        0x0 build/asm/3D1B0.s.o
                0x000000008004bbb0                _3D1F0_s = .
 build/asm/3D1F0.s.o(.data)
 .data          0x000000008004bbb0        0x0 build/asm/3D1F0.s.o
                0x000000008004bbb0                _3D280_s = .
 build/asm/3D280.s.o(.data)
 .data          0x000000008004bbb0        0x0 build/asm/3D280.s.o
                0x000000008004bbb0                _3D2C0_s = .
 build/asm/3D2C0.s.o(.data)
 .data          0x000000008004bbb0        0x0 build/asm/3D2C0.s.o
                0x000000008004bbb0                _3D9D0_s = .
 build/asm/3D9D0.s.o(.data)
 .data          0x000000008004bbb0        0x0 build/asm/3D9D0.s.o
                0x000000008004bbb0                _3DA70_s = .
 build/asm/3DA70.s.o(.data)
 .data          0x000000008004bbb0        0x0 build/asm/3DA70.s.o
                0x000000008004bbb0                _3DA90_s = .
 build/asm/3DA90.s.o(.data)
 .data          0x000000008004bbb0        0x0 build/asm/3DA90.s.o
                0x000000008004bbb0                _3DB20_s = .
 build/asm/3DB20.s.o(.data)
 .data          0x000000008004bbb0        0x0 build/asm/3DB20.s.o
                0x000000008004bbb0                _3DB80_s = .
 build/asm/3DB80.s.o(.data)
 .data          0x000000008004bbb0        0x0 build/asm/3DB80.s.o
                0x000000008004bbb0                _3DBD0_s = .
 build/asm/3DBD0.s.o(.data)
 .data          0x000000008004bbb0        0x0 build/asm/3DBD0.s.o
                0x000000008004bbb0                _3DC30_s = .
 build/asm/3DC30.s.o(.data)
 .data          0x000000008004bbb0        0x0 build/asm/3DC30.s.o
                0x000000008004bbb0                _3DC90_s = .
 build/asm/3DC90.s.o(.data)
 .data          0x000000008004bbb0        0x0 build/asm/3DC90.s.o
                0x000000008004bbb0                _3DCF0_s = .
 build/asm/3DCF0.s.o(.data)
 .data          0x000000008004bbb0        0x0 build/asm/3DCF0.s.o
                0x000000008004bbb0                _3E4D0_s = .
 build/asm/3E4D0.s.o(.data)
 .data          0x000000008004bbb0        0x0 build/asm/3E4D0.s.o
                0x000000008004bbb0                _3E510_s = .
 build/asm/3E510.s.o(.data)
 .data          0x000000008004bbb0        0x0 build/asm/3E510.s.o
                0x000000008004bbb0                _3E850_s = .
 build/asm/3E850.s.o(.data)
 .data          0x000000008004bbb0        0x0 build/asm/3E850.s.o
                0x000000008004bbb0                _3E8C0_s = .
 build/asm/3E8C0.s.o(.data)
 .data          0x000000008004bbb0        0x0 build/asm/3E8C0.s.o
                0x000000008004bbb0                _3EAA0_s = .
 build/asm/3EAA0.s.o(.data)
 .data          0x000000008004bbb0        0x0 build/asm/3EAA0.s.o
                0x000000008004bbb0                _3EC80_s = .
 build/asm/3EC80.s.o(.data)
 .data          0x000000008004bbb0        0x0 build/asm/3EC80.s.o
                0x000000008004bbb0                _3EE20_s = .
 build/asm/3EE20.s.o(.data)
 .data          0x000000008004bbb0        0x0 build/asm/3EE20.s.o
                0x000000008004bbb0                _3F2A0_s = .
 build/asm/3F2A0.s.o(.data)
 .data          0x000000008004bbb0        0x0 build/asm/3F2A0.s.o
                0x000000008004bbb0                _3F510_s = .
 build/asm/3F510.s.o(.data)
 .data          0x000000008004bbb0        0x0 build/asm/3F510.s.o
                0x000000008004bbb0                _3F960_s = .
 build/asm/3F960.s.o(.data)
 .data          0x000000008004bbb0        0x0 build/asm/3F960.s.o
                0x000000008004bbb0                _3F9C0_s = .
 build/asm/3F9C0.s.o(.data)
 .data          0x000000008004bbb0        0x0 build/asm/3F9C0.s.o
                0x000000008004bbb0                _3FB90_s = .
 build/asm/3FB90.s.o(.data)
 .data          0x000000008004bbb0        0x0 build/asm/3FB90.s.o
                0x000000008004bbb0                _3FBB0_s = .
 build/asm/3FBB0.s.o(.data)
 .data          0x000000008004bbb0        0x0 build/asm/3FBB0.s.o
                0x000000008004bbb0                _3FC60_s = .
 build/asm/3FC60.s.o(.data)
 .data          0x000000008004bbb0        0x0 build/asm/3FC60.s.o
                0x000000008004bbb0                _405B0_s = .
 build/asm/405B0.s.o(.data)
 .data          0x000000008004bbb0        0x0 build/asm/405B0.s.o
                0x000000008004bbb0                _40610_s = .
 build/asm/40610.s.o(.data)
 .data          0x000000008004bbb0        0x0 build/asm/40610.s.o
                0x000000008004bbb0                _40670_s = .
 build/asm/40670.s.o(.data)
 .data          0x000000008004bbb0        0x0 build/asm/40670.s.o
                0x000000008004bbb0                _40710_s = .
 build/asm/40710.s.o(.data)
 .data          0x000000008004bbb0        0x0 build/asm/40710.s.o
                0x000000008004bbb0                _40750_s = .
 build/asm/40750.s.o(.data)
 .data          0x000000008004bbb0        0x0 build/asm/40750.s.o
                0x000000008004bbb0                _40870_s = .
 build/asm/40870.s.o(.data)
 .data          0x000000008004bbb0        0x0 build/asm/40870.s.o
                0x000000008004bbb0                _40C60_s = .
 build/asm/40C60.s.o(.data)
 .data          0x000000008004bbb0        0x0 build/asm/40C60.s.o
                0x000000008004bbb0                _41230_s = .
 build/asm/41230.s.o(.data)
 .data          0x000000008004bbb0        0x0 build/asm/41230.s.o
                0x000000008004bbb0                _41240_s = .
 build/asm/41240.s.o(.data)
 .data          0x000000008004bbb0        0x0 build/asm/41240.s.o
                0x000000008004bbb0                _41250_s = .
 build/asm/41250.s.o(.data)
 .data          0x000000008004bbb0        0x0 build/asm/41250.s.o
                0x000000008004bbb0                _415A0_s = .
 build/asm/415A0.s.o(.data)
 .data          0x000000008004bbb0        0x0 build/asm/415A0.s.o
                0x000000008004bbb0                _41630_s = .
 build/asm/41630.s.o(.data)
 .data          0x000000008004bbb0        0x0 build/asm/41630.s.o
                0x000000008004bbb0                _41660_s = .
 build/asm/41660.s.o(.data)
 .data          0x000000008004bbb0        0x0 build/asm/41660.s.o
                0x000000008004bbb0                _41A70_s = .
 build/asm/41A70.s.o(.data)
 .data          0x000000008004bbb0        0x0 build/asm/41A70.s.o
                0x000000008004bbb0                _41D70_s = .
 build/asm/41D70.s.o(.data)
 .data          0x000000008004bbb0        0x0 build/asm/41D70.s.o
                0x000000008004bbb0                _41D80_s = .
 build/asm/41D80.s.o(.data)
 .data          0x000000008004bbb0        0x0 build/asm/41D80.s.o
                0x000000008004bbb0                _41E40_s = .
 build/asm/41E40.s.o(.data)
 .data          0x000000008004bbb0        0x0 build/asm/41E40.s.o
                0x000000008004bbb0                _42B00_s = .
 build/asm/42B00.s.o(.data)
 .data          0x000000008004bbb0        0x0 build/asm/42B00.s.o
                0x000000008004bbb0                _42BA0_s = .
 build/asm/42BA0.s.o(.data)
 .data          0x000000008004bbb0        0x0 build/asm/42BA0.s.o
                0x000000008004bbb0                _42D20_s = .
 build/asm/42D20.s.o(.data)
 .data          0x000000008004bbb0        0x0 build/asm/42D20.s.o
                0x000000008004bbb0                _42D30_s = .
 build/asm/42D30.s.o(.data)
 .data          0x000000008004bbb0        0x0 build/asm/42D30.s.o
                0x000000008004bbb0                _43810_s = .
 build/asm/43810.s.o(.data)
 .data          0x000000008004bbb0        0x0 build/asm/43810.s.o
                0x000000008004bbb0                _438B0_s = .
 build/asm/438B0.s.o(.data)
 .data          0x000000008004bbb0        0x0 build/asm/438B0.s.o
                0x000000008004bbb0                _44550_s = .
 build/asm/44550.s.o(.data)
 .data          0x000000008004bbb0        0x0 build/asm/44550.s.o
                0x000000008004bbb0                _44850_s = .
 build/asm/44850.s.o(.data)
 .data          0x000000008004bbb0        0x0 build/asm/44850.s.o
                0x000000008004bbb0                _454B0_s = .
 build/asm/454B0.s.o(.data)
 .data          0x000000008004bbb0        0x0 build/asm/454B0.s.o
                0x000000008004bbb0                _455C0_s = .
 build/asm/455C0.s.o(.data)
 .data          0x000000008004bbb0        0x0 build/asm/455C0.s.o
                0x000000008004bbb0                _46FF0_s = .
 build/asm/46FF0.s.o(.data)
 .data          0x000000008004bbb0        0x0 build/asm/46FF0.s.o
                0x000000008004bbb0                _470C0_s = .
 build/asm/470C0.s.o(.data)
 .data          0x000000008004bbb0        0x0 build/asm/470C0.s.o
                0x000000008004bbb0                _47210_s = .
 build/asm/47210.s.o(.data)
 .data          0x000000008004bbb0        0x0 build/asm/47210.s.o
                0x000000008004bbb0                _472A0_s = .
 build/asm/472A0.s.o(.data)
 .data          0x000000008004bbb0        0x0 build/asm/472A0.s.o
                0x000000008004bbb0                _474D0_s = .
 build/asm/474D0.s.o(.data)
 .data          0x000000008004bbb0        0x0 build/asm/474D0.s.o
                0x000000008004bbb0                _47610_s = .
 build/asm/47610.s.o(.data)
 .data          0x000000008004bbb0        0x0 build/asm/47610.s.o
                0x000000008004bbb0                _476A0_s = .
 build/asm/476A0.s.o(.data)
 .data          0x000000008004bbb0        0x0 build/asm/476A0.s.o
                0x000000008004bbb0                _47740_s = .
 build/asm/47740.s.o(.data)
 .data          0x000000008004bbb0        0x0 build/asm/47740.s.o
                0x000000008004bbb0                _477D0_s = .
 build/asm/477D0.s.o(.data)
 .data          0x000000008004bbb0        0x0 build/asm/477D0.s.o
                0x000000008004bbb0                _47AC0_s = .
 build/asm/47AC0.s.o(.data)
 .data          0x000000008004bbb0        0x0 build/asm/47AC0.s.o
                0x000000008004bbb0                _47B40_s = .
 build/asm/47B40.s.o(.data)
 .data          0x000000008004bbb0        0x0 build/asm/47B40.s.o
                0x000000008004bbb0                _47D70_s = .
 build/asm/47D70.s.o(.data)
 .data          0x000000008004bbb0        0x0 build/asm/47D70.s.o
                0x000000008004bbb0                _488F0_s = .
 build/asm/488F0.s.o(.data)
 .data          0x000000008004bbb0        0x0 build/asm/488F0.s.o
                0x000000008004bbb0                _49340_s = .
 build/asm/49340.s.o(.data)
 .data          0x000000008004bbb0        0x0 build/asm/49340.s.o
                0x000000008004bbb0                _494B0_s = .
 build/asm/494B0.s.o(.data)
 .data          0x000000008004bbb0        0x0 build/asm/494B0.s.o
                0x000000008004bbb0                _49700_s = .
 build/asm/49700.s.o(.data)
 .data          0x000000008004bbb0        0x0 build/asm/49700.s.o
                0x000000008004bbb0                _497E0_s = .
 build/asm/497E0.s.o(.data)
 .data          0x000000008004bbb0        0x0 build/asm/497E0.s.o
                0x000000008004bbb0                _49990_s = .
 build/asm/49990.s.o(.data)
 .data          0x000000008004bbb0        0x0 build/asm/49990.s.o
                0x000000008004bbb0                _499C0_s = .
 build/asm/499C0.s.o(.data)
 .data          0x000000008004bbb0        0x0 build/asm/499C0.s.o
                0x000000008004bbb0                _49AD0_s = .
 build/asm/49AD0.s.o(.data)
 .data          0x000000008004bbb0        0x0 build/asm/49AD0.s.o
                0x000000008004bbb0                _49B30_s = .
 build/asm/49B30.s.o(.data)
 .data          0x000000008004bbb0        0x0 build/asm/49B30.s.o
                0x000000008004bbb0                _49E60_s = .
 build/asm/49E60.s.o(.data)
 .data          0x000000008004bbb0        0x0 build/asm/49E60.s.o
                0x000000008004bbb0                _49EB0_s = .
 build/asm/49EB0.s.o(.data)
 .data          0x000000008004bbb0        0x0 build/asm/49EB0.s.o
                0x000000008004bbb0                _49F00_s = .
 build/asm/49F00.s.o(.data)
 .data          0x000000008004bbb0        0x0 build/asm/49F00.s.o
                0x000000008004bbb0                _49F10_s = .
 build/asm/49F10.s.o(.data)
 .data          0x000000008004bbb0        0x0 build/asm/49F10.s.o
                0x000000008004bbb0                _4A1B0_s = .
 build/asm/4A1B0.s.o(.data)
 .data          0x000000008004bbb0        0x0 build/asm/4A1B0.s.o
                0x000000008004bbb0                _4AC70_s = .
 build/asm/4AC70.s.o(.data)
 .data          0x000000008004bbb0        0x0 build/asm/4AC70.s.o
                0x000000008004bbb0                _4ACF0_s = .
 build/asm/4ACF0.s.o(.data)
 .data          0x000000008004bbb0        0x0 build/asm/4ACF0.s.o
                0x000000008004bbb0                _4AD10_s = .
 build/asm/4AD10.s.o(.data)
 .data          0x000000008004bbb0        0x0 build/asm/4AD10.s.o
                0x000000008004bbb0                _4B960_s = .
 build/asm/4B960.s.o(.data)
 .data          0x000000008004bbb0        0x0 build/asm/4B960.s.o
                0x000000008004bbb0                _4C3F0_s = .
 build/asm/4C3F0.s.o(.data)
 .data          0x000000008004bbb0        0x0 build/asm/4C3F0.s.o
                0x000000008004bbb0                main_DATA_END = .
                0x0000000000000230                main_DATA_SIZE = ABSOLUTE ((main_DATA_END - main_DATA_START))
                0x000000008004bbb0                main_RODATA_START = .
 build/src/1000.c.o(.rodata)
 build/src/1130.c.o(.rodata)
 build/asm/1870.s.o(.rodata)
 build/asm/3B40.s.o(.rodata)
 build/asm/3F50.s.o(.rodata)
 build/asm/9D50.s.o(.rodata)
 build/asm/DAE0.s.o(.rodata)
 build/asm/E2A0.s.o(.rodata)
 build/asm/113F0.s.o(.rodata)
 build/asm/13DE0.s.o(.rodata)
 build/asm/140D0.s.o(.rodata)
 build/asm/15150.s.o(.rodata)
 build/asm/17360.s.o(.rodata)
 build/asm/1B200.s.o(.rodata)
 build/asm/1E570.s.o(.rodata)
 build/asm/1FA00.s.o(.rodata)
 build/asm/20DA0.s.o(.rodata)
 build/asm/216E0.s.o(.rodata)
 build/asm/272D0.s.o(.rodata)
 build/asm/27600.s.o(.rodata)
 build/asm/27A90.s.o(.rodata)
 build/asm/28D20.s.o(.rodata)
 build/asm/29150.s.o(.rodata)
 build/asm/2B0F0.s.o(.rodata)
 build/asm/337B0.s.o(.rodata)
 build/asm/35EC0.s.o(.rodata)
 build/asm/363B0.s.o(.rodata)
 build/asm/36DB0.s.o(.rodata)
 build/asm/36E60.s.o(.rodata)
 build/asm/376C0.s.o(.rodata)
 build/asm/37980.s.o(.rodata)
 build/asm/37AD0.s.o(.rodata)
 build/asm/37E40.s.o(.rodata)
 build/asm/37EB0.s.o(.rodata)
 build/asm/37F20.s.o(.rodata)
 build/asm/38060.s.o(.rodata)
 build/asm/382C0.s.o(.rodata)
 build/asm/382F0.s.o(.rodata)
 build/asm/38680.s.o(.rodata)
 build/asm/38770.s.o(.rodata)
 build/asm/38A80.s.o(.rodata)
 build/asm/38AF0.s.o(.rodata)
 build/asm/38CB0.s.o(.rodata)
 build/asm/38D30.s.o(.rodata)
 build/asm/38DB0.s.o(.rodata)
 build/asm/38E40.s.o(.rodata)
 build/asm/39110.s.o(.rodata)
 build/asm/39330.s.o(.rodata)
 build/asm/39610.s.o(.rodata)
 build/asm/39820.s.o(.rodata)
 build/asm/39BA0.s.o(.rodata)
 build/asm/39E30.s.o(.rodata)
 build/asm/3A2C0.s.o(.rodata)
 build/asm/3A360.s.o(.rodata)
 build/asm/3A4D0.s.o(.rodata)
 build/asm/3A550.s.o(.rodata)
 build/asm/3A5D0.s.o(.rodata)
 build/asm/3A680.s.o(.rodata)
 build/asm/3A790.s.o(.rodata)
 build/asm/3A7D0.s.o(.rodata)
 build/asm/3A830.s.o(.rodata)
 build/asm/3A980.s.o(.rodata)
 build/asm/3AA80.s.o(.rodata)
 build/asm/3B170.s.o(.rodata)
 build/asm/3B220.s.o(.rodata)
 build/asm/3B230.s.o(.rodata)
 build/asm/3C460.s.o(.rodata)
 build/asm/3C6B0.s.o(.rodata)
 build/asm/3C6F0.s.o(.rodata)
 build/asm/3D1B0.s.o(.rodata)
 build/asm/3D1F0.s.o(.rodata)
 build/asm/3D280.s.o(.rodata)
 build/asm/3D2C0.s.o(.rodata)
 build/asm/3D9D0.s.o(.rodata)
 build/asm/3DA70.s.o(.rodata)
 build/asm/3DA90.s.o(.rodata)
 build/asm/3DB20.s.o(.rodata)
 build/asm/3DB80.s.o(.rodata)
 build/asm/3DBD0.s.o(.rodata)
 build/asm/3DC30.s.o(.rodata)
 build/asm/3DC90.s.o(.rodata)
 build/asm/3DCF0.s.o(.rodata)
 build/asm/3E4D0.s.o(.rodata)
 build/asm/3E510.s.o(.rodata)
 build/asm/3E850.s.o(.rodata)
 build/asm/3E8C0.s.o(.rodata)
 build/asm/3EAA0.s.o(.rodata)
 build/asm/3EC80.s.o(.rodata)
 build/asm/3EE20.s.o(.rodata)
 build/asm/3F2A0.s.o(.rodata)
 build/asm/3F510.s.o(.rodata)
 build/asm/3F960.s.o(.rodata)
 build/asm/3F9C0.s.o(.rodata)
 build/asm/3FB90.s.o(.rodata)
 build/asm/3FBB0.s.o(.rodata)
 build/asm/3FC60.s.o(.rodata)
 build/asm/405B0.s.o(.rodata)
 build/asm/40610.s.o(.rodata)
 build/asm/40670.s.o(.rodata)
 build/asm/40710.s.o(.rodata)
 build/asm/40750.s.o(.rodata)
 build/asm/40870.s.o(.rodata)
 build/asm/40C60.s.o(.rodata)
 build/asm/41230.s.o(.rodata)
 build/asm/41240.s.o(.rodata)
 build/asm/41250.s.o(.rodata)
 build/asm/415A0.s.o(.rodata)
 build/asm/41630.s.o(.rodata)
 build/asm/41660.s.o(.rodata)
 build/asm/41A70.s.o(.rodata)
 build/asm/41D70.s.o(.rodata)
 build/asm/41D80.s.o(.rodata)
 build/asm/41E40.s.o(.rodata)
 build/asm/42B00.s.o(.rodata)
 build/asm/42BA0.s.o(.rodata)
 build/asm/42D20.s.o(.rodata)
 build/asm/42D30.s.o(.rodata)
 build/asm/43810.s.o(.rodata)
 build/asm/438B0.s.o(.rodata)
 build/asm/44550.s.o(.rodata)
 build/asm/44850.s.o(.rodata)
 build/asm/454B0.s.o(.rodata)
 build/asm/455C0.s.o(.rodata)
 build/asm/46FF0.s.o(.rodata)
 build/asm/470C0.s.o(.rodata)
 build/asm/47210.s.o(.rodata)
 build/asm/472A0.s.o(.rodata)
 build/asm/474D0.s.o(.rodata)
 build/asm/47610.s.o(.rodata)
 build/asm/476A0.s.o(.rodata)
 build/asm/47740.s.o(.rodata)
 build/asm/477D0.s.o(.rodata)
 build/asm/47AC0.s.o(.rodata)
 build/asm/47B40.s.o(.rodata)
 build/asm/47D70.s.o(.rodata)
 build/asm/488F0.s.o(.rodata)
 build/asm/49340.s.o(.rodata)
 build/asm/494B0.s.o(.rodata)
 build/asm/49700.s.o(.rodata)
 build/asm/497E0.s.o(.rodata)
 build/asm/49990.s.o(.rodata)
 build/asm/499C0.s.o(.rodata)
 build/asm/49AD0.s.o(.rodata)
 build/asm/49B30.s.o(.rodata)
 build/asm/49E60.s.o(.rodata)
 build/asm/49EB0.s.o(.rodata)
 build/asm/49F00.s.o(.rodata)
 build/asm/49F10.s.o(.rodata)
 build/asm/4A1B0.s.o(.rodata)
 build/asm/4AC70.s.o(.rodata)
 build/asm/4ACF0.s.o(.rodata)
 build/asm/4AD10.s.o(.rodata)
 build/asm/4B960.s.o(.rodata)
 build/asm/4C3F0.s.o(.rodata)
                0x000000008004bbb0                main_RODATA_END = .
                0x0000000000000000                main_RODATA_SIZE = ABSOLUTE ((main_RODATA_END - main_RODATA_START))
                0x000000008004bbb0                main_bss_VRAM = ADDR (.main_bss)

.main_bss       0x000000008004bbb0        0x0 load address 0x000000000004c7b0
                0x000000008004bbb0                main_BSS_START = .
 build/src/1000.c.o(.bss)
 build/src/1130.c.o(.bss)
 build/asm/1870.s.o(.bss)
 .bss           0x000000008004bbb0        0x0 build/asm/1870.s.o
 build/asm/3B40.s.o(.bss)
 .bss           0x000000008004bbb0        0x0 build/asm/3B40.s.o
 build/asm/3F50.s.o(.bss)
 .bss           0x000000008004bbb0        0x0 build/asm/3F50.s.o
 build/asm/9D50.s.o(.bss)
 .bss           0x000000008004bbb0        0x0 build/asm/9D50.s.o
 build/asm/DAE0.s.o(.bss)
 .bss           0x000000008004bbb0        0x0 build/asm/DAE0.s.o
 build/asm/E2A0.s.o(.bss)
 .bss           0x000000008004bbb0        0x0 build/asm/E2A0.s.o
 build/asm/113F0.s.o(.bss)
 .bss           0x000000008004bbb0        0x0 build/asm/113F0.s.o
 build/asm/13DE0.s.o(.bss)
 .bss           0x000000008004bbb0        0x0 build/asm/13DE0.s.o
 build/asm/140D0.s.o(.bss)
 .bss           0x000000008004bbb0        0x0 build/asm/140D0.s.o
 build/asm/15150.s.o(.bss)
 .bss           0x000000008004bbb0        0x0 build/asm/15150.s.o
 build/asm/17360.s.o(.bss)
 .bss           0x000000008004bbb0        0x0 build/asm/17360.s.o
 build/asm/1B200.s.o(.bss)
 .bss           0x000000008004bbb0        0x0 build/asm/1B200.s.o
 build/asm/1E570.s.o(.bss)
 .bss           0x000000008004bbb0        0x0 build/asm/1E570.s.o
 build/asm/1FA00.s.o(.bss)
 .bss           0x000000008004bbb0        0x0 build/asm/1FA00.s.o
 build/asm/20DA0.s.o(.bss)
 .bss           0x000000008004bbb0        0x0 build/asm/20DA0.s.o
 build/asm/216E0.s.o(.bss)
 .bss           0x000000008004bbb0        0x0 build/asm/216E0.s.o
 build/asm/272D0.s.o(.bss)
 .bss           0x000000008004bbb0        0x0 build/asm/272D0.s.o
 build/asm/27600.s.o(.bss)
 .bss           0x000000008004bbb0        0x0 build/asm/27600.s.o
 build/asm/27A90.s.o(.bss)
 .bss           0x000000008004bbb0        0x0 build/asm/27A90.s.o
 build/asm/28D20.s.o(.bss)
 .bss           0x000000008004bbb0        0x0 build/asm/28D20.s.o
 build/asm/29150.s.o(.bss)
 .bss           0x000000008004bbb0        0x0 build/asm/29150.s.o
 build/asm/2B0F0.s.o(.bss)
 .bss           0x000000008004bbb0        0x0 build/asm/2B0F0.s.o
 build/asm/337B0.s.o(.bss)
 .bss           0x000000008004bbb0        0x0 build/asm/337B0.s.o
 build/asm/35EC0.s.o(.bss)
 .bss           0x000000008004bbb0        0x0 build/asm/35EC0.s.o
 build/asm/363B0.s.o(.bss)
 .bss           0x000000008004bbb0        0x0 build/asm/363B0.s.o
 build/asm/36DB0.s.o(.bss)
 .bss           0x000000008004bbb0        0x0 build/asm/36DB0.s.o
 build/asm/36E60.s.o(.bss)
 .bss           0x000000008004bbb0        0x0 build/asm/36E60.s.o
 build/asm/376C0.s.o(.bss)
 .bss           0x000000008004bbb0        0x0 build/asm/376C0.s.o
 build/asm/37980.s.o(.bss)
 .bss           0x000000008004bbb0        0x0 build/asm/37980.s.o
 build/asm/37AD0.s.o(.bss)
 .bss           0x000000008004bbb0        0x0 build/asm/37AD0.s.o
 build/asm/37E40.s.o(.bss)
 .bss           0x000000008004bbb0        0x0 build/asm/37E40.s.o
 build/asm/37EB0.s.o(.bss)
 .bss           0x000000008004bbb0        0x0 build/asm/37EB0.s.o
 build/asm/37F20.s.o(.bss)
 .bss           0x000000008004bbb0        0x0 build/asm/37F20.s.o
 build/asm/38060.s.o(.bss)
 .bss           0x000000008004bbb0        0x0 build/asm/38060.s.o
 build/asm/382C0.s.o(.bss)
 .bss           0x000000008004bbb0        0x0 build/asm/382C0.s.o
 build/asm/382F0.s.o(.bss)
 .bss           0x000000008004bbb0        0x0 build/asm/382F0.s.o
 build/asm/38680.s.o(.bss)
 .bss           0x000000008004bbb0        0x0 build/asm/38680.s.o
 build/asm/38770.s.o(.bss)
 .bss           0x000000008004bbb0        0x0 build/asm/38770.s.o
 build/asm/38A80.s.o(.bss)
 .bss           0x000000008004bbb0        0x0 build/asm/38A80.s.o
 build/asm/38AF0.s.o(.bss)
 .bss           0x000000008004bbb0        0x0 build/asm/38AF0.s.o
 build/asm/38CB0.s.o(.bss)
 .bss           0x000000008004bbb0        0x0 build/asm/38CB0.s.o
 build/asm/38D30.s.o(.bss)
 .bss           0x000000008004bbb0        0x0 build/asm/38D30.s.o
 build/asm/38DB0.s.o(.bss)
 .bss           0x000000008004bbb0        0x0 build/asm/38DB0.s.o
 build/asm/38E40.s.o(.bss)
 .bss           0x000000008004bbb0        0x0 build/asm/38E40.s.o
 build/asm/39110.s.o(.bss)
 .bss           0x000000008004bbb0        0x0 build/asm/39110.s.o
 build/asm/39330.s.o(.bss)
 .bss           0x000000008004bbb0        0x0 build/asm/39330.s.o
 build/asm/39610.s.o(.bss)
 .bss           0x000000008004bbb0        0x0 build/asm/39610.s.o
 build/asm/39820.s.o(.bss)
 .bss           0x000000008004bbb0        0x0 build/asm/39820.s.o
 build/asm/39BA0.s.o(.bss)
 .bss           0x000000008004bbb0        0x0 build/asm/39BA0.s.o
 build/asm/39E30.s.o(.bss)
 .bss           0x000000008004bbb0        0x0 build/asm/39E30.s.o
 build/asm/3A2C0.s.o(.bss)
 .bss           0x000000008004bbb0        0x0 build/asm/3A2C0.s.o
 build/asm/3A360.s.o(.bss)
 .bss           0x000000008004bbb0        0x0 build/asm/3A360.s.o
 build/asm/3A4D0.s.o(.bss)
 .bss           0x000000008004bbb0        0x0 build/asm/3A4D0.s.o
 build/asm/3A550.s.o(.bss)
 .bss           0x000000008004bbb0        0x0 build/asm/3A550.s.o
 build/asm/3A5D0.s.o(.bss)
 .bss           0x000000008004bbb0        0x0 build/asm/3A5D0.s.o
 build/asm/3A680.s.o(.bss)
 .bss           0x000000008004bbb0        0x0 build/asm/3A680.s.o
 build/asm/3A790.s.o(.bss)
 .bss           0x000000008004bbb0        0x0 build/asm/3A790.s.o
 build/asm/3A7D0.s.o(.bss)
 .bss           0x000000008004bbb0        0x0 build/asm/3A7D0.s.o
 build/asm/3A830.s.o(.bss)
 .bss           0x000000008004bbb0        0x0 build/asm/3A830.s.o
 build/asm/3A980.s.o(.bss)
 .bss           0x000000008004bbb0        0x0 build/asm/3A980.s.o
 build/asm/3AA80.s.o(.bss)
 .bss           0x000000008004bbb0        0x0 build/asm/3AA80.s.o
 build/asm/3B170.s.o(.bss)
 .bss           0x000000008004bbb0        0x0 build/asm/3B170.s.o
 build/asm/3B220.s.o(.bss)
 .bss           0x000000008004bbb0        0x0 build/asm/3B220.s.o
 build/asm/3B230.s.o(.bss)
 .bss           0x000000008004bbb0        0x0 build/asm/3B230.s.o
 build/asm/3C460.s.o(.bss)
 .bss           0x000000008004bbb0        0x0 build/asm/3C460.s.o
 build/asm/3C6B0.s.o(.bss)
 .bss           0x000000008004bbb0        0x0 build/asm/3C6B0.s.o
 build/asm/3C6F0.s.o(.bss)
 .bss           0x000000008004bbb0        0x0 build/asm/3C6F0.s.o
 build/asm/3D1B0.s.o(.bss)
 .bss           0x000000008004bbb0        0x0 build/asm/3D1B0.s.o
 build/asm/3D1F0.s.o(.bss)
 .bss           0x000000008004bbb0        0x0 build/asm/3D1F0.s.o
 build/asm/3D280.s.o(.bss)
 .bss           0x000000008004bbb0        0x0 build/asm/3D280.s.o
 build/asm/3D2C0.s.o(.bss)
 .bss           0x000000008004bbb0        0x0 build/asm/3D2C0.s.o
 build/asm/3D9D0.s.o(.bss)
 .bss           0x000000008004bbb0        0x0 build/asm/3D9D0.s.o
 build/asm/3DA70.s.o(.bss)
 .bss           0x000000008004bbb0        0x0 build/asm/3DA70.s.o
 build/asm/3DA90.s.o(.bss)
 .bss           0x000000008004bbb0        0x0 build/asm/3DA90.s.o
 build/asm/3DB20.s.o(.bss)
 .bss           0x000000008004bbb0        0x0 build/asm/3DB20.s.o
 build/asm/3DB80.s.o(.bss)
 .bss           0x000000008004bbb0        0x0 build/asm/3DB80.s.o
 build/asm/3DBD0.s.o(.bss)
 .bss           0x000000008004bbb0        0x0 build/asm/3DBD0.s.o
 build/asm/3DC30.s.o(.bss)
 .bss           0x000000008004bbb0        0x0 build/asm/3DC30.s.o
 build/asm/3DC90.s.o(.bss)
 .bss           0x000000008004bbb0        0x0 build/asm/3DC90.s.o
 build/asm/3DCF0.s.o(.bss)
 .bss           0x000000008004bbb0        0x0 build/asm/3DCF0.s.o
 build/asm/3E4D0.s.o(.bss)
 .bss           0x000000008004bbb0        0x0 build/asm/3E4D0.s.o
 build/asm/3E510.s.o(.bss)
 .bss           0x000000008004bbb0        0x0 build/asm/3E510.s.o
 build/asm/3E850.s.o(.bss)
 .bss           0x000000008004bbb0        0x0 build/asm/3E850.s.o
 build/asm/3E8C0.s.o(.bss)
 .bss           0x000000008004bbb0        0x0 build/asm/3E8C0.s.o
 build/asm/3EAA0.s.o(.bss)
 .bss           0x000000008004bbb0        0x0 build/asm/3EAA0.s.o
 build/asm/3EC80.s.o(.bss)
 .bss           0x000000008004bbb0        0x0 build/asm/3EC80.s.o
 build/asm/3EE20.s.o(.bss)
 .bss           0x000000008004bbb0        0x0 build/asm/3EE20.s.o
 build/asm/3F2A0.s.o(.bss)
 .bss           0x000000008004bbb0        0x0 build/asm/3F2A0.s.o
 build/asm/3F510.s.o(.bss)
 .bss           0x000000008004bbb0        0x0 build/asm/3F510.s.o
 build/asm/3F960.s.o(.bss)
 .bss           0x000000008004bbb0        0x0 build/asm/3F960.s.o
 build/asm/3F9C0.s.o(.bss)
 .bss           0x000000008004bbb0        0x0 build/asm/3F9C0.s.o
 build/asm/3FB90.s.o(.bss)
 .bss           0x000000008004bbb0        0x0 build/asm/3FB90.s.o
 build/asm/3FBB0.s.o(.bss)
 .bss           0x000000008004bbb0        0x0 build/asm/3FBB0.s.o
 build/asm/3FC60.s.o(.bss)
 .bss           0x000000008004bbb0        0x0 build/asm/3FC60.s.o
 build/asm/405B0.s.o(.bss)
 .bss           0x000000008004bbb0        0x0 build/asm/405B0.s.o
 build/asm/40610.s.o(.bss)
 .bss           0x000000008004bbb0        0x0 build/asm/40610.s.o
 build/asm/40670.s.o(.bss)
 .bss           0x000000008004bbb0        0x0 build/asm/40670.s.o
 build/asm/40710.s.o(.bss)
 .bss           0x000000008004bbb0        0x0 build/asm/40710.s.o
 build/asm/40750.s.o(.bss)
 .bss           0x000000008004bbb0        0x0 build/asm/40750.s.o
 build/asm/40870.s.o(.bss)
 .bss           0x000000008004bbb0        0x0 build/asm/40870.s.o
 build/asm/40C60.s.o(.bss)
 .bss           0x000000008004bbb0        0x0 build/asm/40C60.s.o
 build/asm/41230.s.o(.bss)
 .bss           0x000000008004bbb0        0x0 build/asm/41230.s.o
 build/asm/41240.s.o(.bss)
 .bss           0x000000008004bbb0        0x0 build/asm/41240.s.o
 build/asm/41250.s.o(.bss)
 .bss           0x000000008004bbb0        0x0 build/asm/41250.s.o
 build/asm/415A0.s.o(.bss)
 .bss           0x000000008004bbb0        0x0 build/asm/415A0.s.o
 build/asm/41630.s.o(.bss)
 .bss           0x000000008004bbb0        0x0 build/asm/41630.s.o
 build/asm/41660.s.o(.bss)
 .bss           0x000000008004bbb0        0x0 build/asm/41660.s.o
 build/asm/41A70.s.o(.bss)
 .bss           0x000000008004bbb0        0x0 build/asm/41A70.s.o
 build/asm/41D70.s.o(.bss)
 .bss           0x000000008004bbb0        0x0 build/asm/41D70.s.o
 build/asm/41D80.s.o(.bss)
 .bss           0x000000008004bbb0        0x0 build/asm/41D80.s.o
 build/asm/41E40.s.o(.bss)
 .bss           0x000000008004bbb0        0x0 build/asm/41E40.s.o
 build/asm/42B00.s.o(.bss)
 .bss           0x000000008004bbb0        0x0 build/asm/42B00.s.o
 build/asm/42BA0.s.o(.bss)
 .bss           0x000000008004bbb0        0x0 build/asm/42BA0.s.o
 build/asm/42D20.s.o(.bss)
 .bss           0x000000008004bbb0        0x0 build/asm/42D20.s.o
 build/asm/42D30.s.o(.bss)
 .bss           0x000000008004bbb0        0x0 build/asm/42D30.s.o
 build/asm/43810.s.o(.bss)
 .bss           0x000000008004bbb0        0x0 build/asm/43810.s.o
 build/asm/438B0.s.o(.bss)
 .bss           0x000000008004bbb0        0x0 build/asm/438B0.s.o
 build/asm/44550.s.o(.bss)
 .bss           0x000000008004bbb0        0x0 build/asm/44550.s.o
 build/asm/44850.s.o(.bss)
 .bss           0x000000008004bbb0        0x0 build/asm/44850.s.o
 build/asm/454B0.s.o(.bss)
 .bss           0x000000008004bbb0        0x0 build/asm/454B0.s.o
 build/asm/455C0.s.o(.bss)
 .bss           0x000000008004bbb0        0x0 build/asm/455C0.s.o
 build/asm/46FF0.s.o(.bss)
 .bss           0x000000008004bbb0        0x0 build/asm/46FF0.s.o
 build/asm/470C0.s.o(.bss)
 .bss           0x000000008004bbb0        0x0 build/asm/470C0.s.o
 build/asm/47210.s.o(.bss)
 .bss           0x000000008004bbb0        0x0 build/asm/47210.s.o
 build/asm/472A0.s.o(.bss)
 .bss           0x000000008004bbb0        0x0 build/asm/472A0.s.o
 build/asm/474D0.s.o(.bss)
 .bss           0x000000008004bbb0        0x0 build/asm/474D0.s.o
 build/asm/47610.s.o(.bss)
 .bss           0x000000008004bbb0        0x0 build/asm/47610.s.o
 build/asm/476A0.s.o(.bss)
 .bss           0x000000008004bbb0        0x0 build/asm/476A0.s.o
 build/asm/47740.s.o(.bss)
 .bss           0x000000008004bbb0        0x0 build/asm/47740.s.o
 build/asm/477D0.s.o(.bss)
 .bss           0x000000008004bbb0        0x0 build/asm/477D0.s.o
 build/asm/47AC0.s.o(.bss)
 .bss           0x000000008004bbb0        0x0 build/asm/47AC0.s.o
 build/asm/47B40.s.o(.bss)
 .bss           0x000000008004bbb0        0x0 build/asm/47B40.s.o
 build/asm/47D70.s.o(.bss)
 .bss           0x000000008004bbb0        0x0 build/asm/47D70.s.o
 build/asm/488F0.s.o(.bss)
 .bss           0x000000008004bbb0        0x0 build/asm/488F0.s.o
 build/asm/49340.s.o(.bss)
 .bss           0x000000008004bbb0        0x0 build/asm/49340.s.o
 build/asm/494B0.s.o(.bss)
 .bss           0x000000008004bbb0        0x0 build/asm/494B0.s.o
 build/asm/49700.s.o(.bss)
 .bss           0x000000008004bbb0        0x0 build/asm/49700.s.o
 build/asm/497E0.s.o(.bss)
 .bss           0x000000008004bbb0        0x0 build/asm/497E0.s.o
 build/asm/49990.s.o(.bss)
 .bss           0x000000008004bbb0        0x0 build/asm/49990.s.o
 build/asm/499C0.s.o(.bss)
 .bss           0x000000008004bbb0        0x0 build/asm/499C0.s.o
 build/asm/49AD0.s.o(.bss)
 .bss           0x000000008004bbb0        0x0 build/asm/49AD0.s.o
 build/asm/49B30.s.o(.bss)
 .bss           0x000000008004bbb0        0x0 build/asm/49B30.s.o
 build/asm/49E60.s.o(.bss)
 .bss           0x000000008004bbb0        0x0 build/asm/49E60.s.o
 build/asm/49EB0.s.o(.bss)
 .bss           0x000000008004bbb0        0x0 build/asm/49EB0.s.o
 build/asm/49F00.s.o(.bss)
 .bss           0x000000008004bbb0        0x0 build/asm/49F00.s.o
 build/asm/49F10.s.o(.bss)
 .bss           0x000000008004bbb0        0x0 build/asm/49F10.s.o
 build/asm/4A1B0.s.o(.bss)
 .bss           0x000000008004bbb0        0x0 build/asm/4A1B0.s.o
 build/asm/4AC70.s.o(.bss)
 .bss           0x000000008004bbb0        0x0 build/asm/4AC70.s.o
 build/asm/4ACF0.s.o(.bss)
 .bss           0x000000008004bbb0        0x0 build/asm/4ACF0.s.o
 build/asm/4AD10.s.o(.bss)
 .bss           0x000000008004bbb0        0x0 build/asm/4AD10.s.o
 build/asm/4B960.s.o(.bss)
 .bss           0x000000008004bbb0        0x0 build/asm/4B960.s.o
 build/asm/4C3F0.s.o(.bss)
 .bss           0x000000008004bbb0        0x0 build/asm/4C3F0.s.o
                0x000000008004bbb0                main_BSS_END = .
                0x0000000000000000                main_BSS_SIZE = ABSOLUTE ((main_BSS_END - main_BSS_START))
                0x0000000001000000                __romPos = (__romPos + SIZEOF (.main))
                0x0000000001000000                __romPos = ALIGN (__romPos, 0x10)
                0x000000000004c7b0                main_ROM_END = __romPos
                0x000000008004bbb0                main_VRAM_END = .
                0x000000000004c7b0                _4C7B0_ROM_START = __romPos
                0x000000008004bbb0                _4C7B0_VRAM = ADDR (._4C7B0)

._4C7B0         0x000000008004bbb0   0xfb3850 load address 0x000000000004c7b0
                0x000000008004bbb0                _4C7B0_DATA_START = .
                0x000000008004bbb0                _4C7B0_bin = .
 build/assets/4C7B0.bin.o(.data)
 .data          0x000000008004bbb0   0xfb3850 build/assets/4C7B0.bin.o
                0x000000008004bbb0                _binary_assets_4C7B0_bin_start
                0x0000000080fff400                _binary_assets_4C7B0_bin_end
                0x0000000080fff400                _4C7B0_DATA_END = .
                0x0000000000fb3850                _4C7B0_DATA_SIZE = ABSOLUTE ((_4C7B0_DATA_END - _4C7B0_DATA_START))
                0x0000000001000000                __romPos = (__romPos + SIZEOF (._4C7B0))
                0x0000000001000000                _4C7B0_ROM_END = __romPos
                0x0000000080fff400                _4C7B0_VRAM_END = .

/DISCARD/
 *(*)
                0x0000000000071920                D_71920 = 0x71920
                0x00000000000753f0                D_753F0 = 0x753f0
                0x00000000000851f0                D_851F0 = 0x851f0
                0x00000000000c8de0                D_C8DE0 = 0xc8de0
                0x00000000003e1090                D_3E1090 = 0x3e1090
                0x00000000003f1ba0                D_3F1BA0 = 0x3f1ba0
                0x0000000000869620                D_869620 = 0x869620
                0x000000000086f6f0                D_86F6F0 = 0x86f6f0
                0x0000000000871d10                D_871D10 = 0x871d10
                0x0000000000a70350                D_A70350 = 0xa70350
                0x0000000000a77f10                D_A77F10 = 0xa77f10
                0x0000000000d2e2f0                D_D2E2F0 = 0xd2e2f0
                0x0000000000d37700                D_D37700 = 0xd37700
                0x0000000000d384b0                D_D384B0 = 0xd384b0
                0x0000000000d3a8b0                D_D3A8B0 = 0xd3a8b0
                0x0000000000d3a930                D_D3A930 = 0xd3a930
                0x0000000000d490c0                D_D490C0 = 0xd490c0
                0x0000000000d74ac0                D_D74AC0 = 0xd74ac0
                0x0000000000d86170                D_D86170 = 0xd86170
                0x0000000000d86770                D_D86770 = 0xd86770
                0x0000000000da4570                D_DA4570 = 0xda4570
                0x0000000000dab5f0                D_DAB5F0 = 0xdab5f0
                0x0000000000dc62b0                D_DC62B0 = 0xdc62b0
                0x0000000000e22690                D_E22690 = 0xe22690
                0x0000000000e420d0                D_E420D0 = 0xe420d0
                0x0000000000e43780                D_E43780 = 0xe43780
                0x0000000000e5bf60                D_E5BF60 = 0xe5bf60
                0x0000000000e5ed70                D_E5ED70 = 0xe5ed70
                0x0000000000e98330                D_E98330 = 0xe98330
                0x0000000000ecb7b0                D_ECB7B0 = 0xecb7b0
                0x0000000000ecd470                D_ECD470 = 0xecd470
                0x0000000001000010                D_1000010 = 0x1000010
                0x00000000010000a0                D_10000A0 = 0x10000a0
                0x00000000010000e8                D_10000E8 = 0x10000e8
                0x0000000001000230                D_1000230 = 0x1000230
                0x0000000001000270                D_1000270 = 0x1000270
                0x0000000001000388                D_1000388 = 0x1000388
                0x0000000002000000                D_2000000 = 0x2000000
                0x0000000002000040                D_2000040 = 0x2000040
                0x0000000002000080                D_2000080 = 0x2000080
                0x0000000002008a40                D_2008A40 = 0x2008a40
                0x0000000002008a50                D_2008A50 = 0x2008a50
                0x0000000080000000                D_80000000 = 0x80000000
                0x0000000080000004                D_80000004 = 0x80000004
                0x0000000080000008                D_80000008 = 0x80000008
                0x000000008000000c                D_8000000C = 0x8000000c
                0x0000000080000300                D_80000300 = 0x80000300
                0x0000000080000308                D_80000308 = 0x80000308
                0x000000008000030c                D_8000030C = 0x8000030c
                0x000000008000031c                D_8000031C = 0x8000031c
                0x0000000080000450                D_80000450 = 0x80000450
                0x000000008003f070                D_8003F070 = 0x8003f070
                0x000000008003f950                D_8003F950 = 0x8003f950
                0x000000008004b980                D_8004B980 = 0x8004b980
                0x000000008004ba50                D_8004BA50 = 0x8004ba50
                0x000000008004ce80                D_8004CE80 = 0x8004ce80
                0x000000008004dca0                D_8004DCA0 = 0x8004dca0
                0x000000008004dca4                D_8004DCA4 = 0x8004dca4
                0x000000008004dcb0                D_8004DCB0 = 0x8004dcb0
                0x000000008004dcf8                D_8004DCF8 = 0x8004dcf8
                0x000000008004dcfc                D_8004DCFC = 0x8004dcfc
                0x000000008004dd10                D_8004DD10 = 0x8004dd10
                0x000000008004dd18                D_8004DD18 = 0x8004dd18
                0x000000008004dd20                D_8004DD20 = 0x8004dd20
                0x000000008004dd38                D_8004DD38 = 0x8004dd38
                0x000000008004dd50                D_8004DD50 = 0x8004dd50
                0x000000008004dd60                D_8004DD60 = 0x8004dd60
                0x000000008004dd70                D_8004DD70 = 0x8004dd70
                0x000000008004dd74                D_8004DD74 = 0x8004dd74
                0x000000008004dd84                D_8004DD84 = 0x8004dd84
                0x000000008004dd8b                D_8004DD8B = 0x8004dd8b
                0x000000008004dd98                D_8004DD98 = 0x8004dd98
                0x000000008004ddb0                D_8004DDB0 = 0x8004ddb0
                0x000000008004ddb4                D_8004DDB4 = 0x8004ddb4
                0x000000008004ddc8                D_8004DDC8 = 0x8004ddc8
                0x000000008004ddd4                D_8004DDD4 = 0x8004ddd4
                0x000000008004dde4                D_8004DDE4 = 0x8004dde4
                0x000000008004ddf4                D_8004DDF4 = 0x8004ddf4
                0x000000008004de04                D_8004DE04 = 0x8004de04
                0x000000008004de14                D_8004DE14 = 0x8004de14
                0x000000008004de1c                D_8004DE1C = 0x8004de1c
                0x000000008004de20                D_8004DE20 = 0x8004de20
                0x000000008004de24                D_8004DE24 = 0x8004de24
                0x000000008004de2c                D_8004DE2C = 0x8004de2c
                0x000000008004de30                D_8004DE30 = 0x8004de30
                0x000000008004de34                D_8004DE34 = 0x8004de34
                0x000000008004de3c                D_8004DE3C = 0x8004de3c
                0x000000008004de44                D_8004DE44 = 0x8004de44
                0x000000008004de5c                D_8004DE5C = 0x8004de5c
                0x000000008004de60                D_8004DE60 = 0x8004de60
                0x000000008004de64                D_8004DE64 = 0x8004de64
                0x000000008004de6c                D_8004DE6C = 0x8004de6c
                0x000000008004de70                D_8004DE70 = 0x8004de70
                0x000000008004de84                D_8004DE84 = 0x8004de84
                0x000000008004de88                D_8004DE88 = 0x8004de88
                0x000000008004de8c                D_8004DE8C = 0x8004de8c
                0x000000008004de90                D_8004DE90 = 0x8004de90
                0x000000008004de94                D_8004DE94 = 0x8004de94
                0x000000008004de98                D_8004DE98 = 0x8004de98
                0x000000008004dec8                D_8004DEC8 = 0x8004dec8
                0x000000008004ded0                D_8004DED0 = 0x8004ded0
                0x000000008004def4                D_8004DEF4 = 0x8004def4
                0x000000008004df00                D_8004DF00 = 0x8004df00
                0x000000008004df08                D_8004DF08 = 0x8004df08
                0x000000008004df1c                D_8004DF1C = 0x8004df1c
                0x000000008004dfc0                D_8004DFC0 = 0x8004dfc0
                0x000000008004e258                D_8004E258 = 0x8004e258
                0x000000008004e658                D_8004E658 = 0x8004e658
                0x000000008004e668                D_8004E668 = 0x8004e668
                0x000000008004e670                D_8004E670 = 0x8004e670
                0x000000008004e674                D_8004E674 = 0x8004e674
                0x000000008004e678                D_8004E678 = 0x8004e678
                0x000000008004e698                D_8004E698 = 0x8004e698
                0x000000008004e6a0                D_8004E6A0 = 0x8004e6a0
                0x000000008004e6a4                D_8004E6A4 = 0x8004e6a4
                0x000000008004e6c0                D_8004E6C0 = 0x8004e6c0
                0x000000008004e6c4                D_8004E6C4 = 0x8004e6c4
                0x000000008004e6e0                D_8004E6E0 = 0x8004e6e0
                0x000000008004eb70                D_8004EB70 = 0x8004eb70
                0x000000008004ec18                D_8004EC18 = 0x8004ec18
                0x000000008004ec30                D_8004EC30 = 0x8004ec30
                0x000000008004ec68                D_8004EC68 = 0x8004ec68
                0x000000008004ec88                D_8004EC88 = 0x8004ec88
                0x000000008004ec8c                D_8004EC8C = 0x8004ec8c
                0x000000008004ec90                D_8004EC90 = 0x8004ec90
                0x000000008004ecb8                D_8004ECB8 = 0x8004ecb8
                0x000000008004ecc4                D_8004ECC4 = 0x8004ecc4
                0x000000008004ecd0                D_8004ECD0 = 0x8004ecd0
                0x000000008004ecdc                D_8004ECDC = 0x8004ecdc
                0x000000008004ed04                D_8004ED04 = 0x8004ed04
                0x000000008004ed34                D_8004ED34 = 0x8004ed34
                0x000000008004ed54                D_8004ED54 = 0x8004ed54
                0x000000008004ed68                D_8004ED68 = 0x8004ed68
                0x000000008004ed7c                D_8004ED7C = 0x8004ed7c
                0x000000008004ed90                D_8004ED90 = 0x8004ed90
                0x000000008004eda4                D_8004EDA4 = 0x8004eda4
                0x000000008004edb0                D_8004EDB0 = 0x8004edb0
                0x000000008004edbc                D_8004EDBC = 0x8004edbc
                0x000000008004edec                D_8004EDEC = 0x8004edec
                0x000000008004ee20                D_8004EE20 = 0x8004ee20
                0x000000008004ee60                D_8004EE60 = 0x8004ee60
                0x000000008004ee90                D_8004EE90 = 0x8004ee90
                0x000000008004ee9c                D_8004EE9C = 0x8004ee9c
                0x000000008004eeb4                D_8004EEB4 = 0x8004eeb4
                0x000000008004eeb8                D_8004EEB8 = 0x8004eeb8
                0x000000008004eebc                D_8004EEBC = 0x8004eebc
                0x000000008004eec4                D_8004EEC4 = 0x8004eec4
                0x000000008004eec8                D_8004EEC8 = 0x8004eec8
                0x000000008004eedc                D_8004EEDC = 0x8004eedc
                0x000000008004ef0c                D_8004EF0C = 0x8004ef0c
                0x000000008004ef24                D_8004EF24 = 0x8004ef24
                0x000000008004ef28                D_8004EF28 = 0x8004ef28
                0x000000008004ef2c                D_8004EF2C = 0x8004ef2c
                0x000000008004ef4c                D_8004EF4C = 0x8004ef4c
                0x000000008004ef58                D_8004EF58 = 0x8004ef58
                0x000000008004ef88                D_8004EF88 = 0x8004ef88
                0x000000008004ef94                D_8004EF94 = 0x8004ef94
                0x000000008004efa4                D_8004EFA4 = 0x8004efa4
                0x000000008004efe4                D_8004EFE4 = 0x8004efe4
                0x000000008004f024                D_8004F024 = 0x8004f024
                0x000000008004f02c                D_8004F02C = 0x8004f02c
                0x000000008004f038                D_8004F038 = 0x8004f038
                0x000000008004f03c                D_8004F03C = 0x8004f03c
                0x000000008004f04c                D_8004F04C = 0x8004f04c
                0x000000008004f060                D_8004F060 = 0x8004f060
                0x000000008004f0a0                D_8004F0A0 = 0x8004f0a0
                0x000000008004f0b0                D_8004F0B0 = 0x8004f0b0
                0x000000008004f29c                D_8004F29C = 0x8004f29c
                0x000000008004f2c4                D_8004F2C4 = 0x8004f2c4
                0x000000008004f2cc                D_8004F2CC = 0x8004f2cc
                0x000000008004f2dc                D_8004F2DC = 0x8004f2dc
                0x000000008004f2ec                D_8004F2EC = 0x8004f2ec
                0x000000008004f2f4                D_8004F2F4 = 0x8004f2f4
                0x000000008004f304                D_8004F304 = 0x8004f304
                0x000000008004f324                D_8004F324 = 0x8004f324
                0x000000008004f344                D_8004F344 = 0x8004f344
                0x000000008004f498                D_8004F498 = 0x8004f498
                0x000000008004f4a0                D_8004F4A0 = 0x8004f4a0
                0x000000008004f4b0                D_8004F4B0 = 0x8004f4b0
                0x000000008004f4c0                D_8004F4C0 = 0x8004f4c0
                0x000000008004f510                D_8004F510 = 0x8004f510
                0x000000008004f550                D_8004F550 = 0x8004f550
                0x000000008004f5a0                D_8004F5A0 = 0x8004f5a0
                0x000000008004f5b4                D_8004F5B4 = 0x8004f5b4
                0x000000008004f5dc                D_8004F5DC = 0x8004f5dc
                0x000000008004f5e0                D_8004F5E0 = 0x8004f5e0
                0x000000008004f61c                D_8004F61C = 0x8004f61c
                0x000000008004f620                D_8004F620 = 0x8004f620
                0x000000008004f69c                D_8004F69C = 0x8004f69c
                0x000000008004f6c0                D_8004F6C0 = 0x8004f6c0
                0x000000008004f73c                D_8004F73C = 0x8004f73c
                0x000000008004f760                D_8004F760 = 0x8004f760
                0x000000008004f770                D_8004F770 = 0x8004f770
                0x000000008004f778                D_8004F778 = 0x8004f778
                0x000000008004f77c                D_8004F77C = 0x8004f77c
                0x000000008004f780                D_8004F780 = 0x8004f780
                0x0000000080055928                D_80055928 = 0x80055928
                0x000000008005592c                D_8005592C = 0x8005592c
                0x0000000080055930                D_80055930 = 0x80055930
                0x0000000080055934                D_80055934 = 0x80055934
                0x0000000080055938                D_80055938 = 0x80055938
                0x000000008005593c                D_8005593C = 0x8005593c
                0x0000000080055940                D_80055940 = 0x80055940
                0x0000000080055944                D_80055944 = 0x80055944
                0x000000008005594c                D_8005594C = 0x8005594c
                0x000000008005596c                D_8005596C = 0x8005596c
                0x000000008005598c                D_8005598C = 0x8005598c
                0x00000000800559ac                D_800559AC = 0x800559ac
                0x00000000800559b0                D_800559B0 = 0x800559b0
                0x00000000800559b4                D_800559B4 = 0x800559b4
                0x00000000800559b6                D_800559B6 = 0x800559b6
                0x00000000800559b8                D_800559B8 = 0x800559b8
                0x00000000800559bc                D_800559BC = 0x800559bc
                0x00000000800559c0                D_800559C0 = 0x800559c0
                0x00000000800559c4                D_800559C4 = 0x800559c4
                0x00000000800559c8                D_800559C8 = 0x800559c8
                0x00000000800559cc                D_800559CC = 0x800559cc
                0x00000000800559d0                D_800559D0 = 0x800559d0
                0x00000000800559d4                D_800559D4 = 0x800559d4
                0x00000000800559e4                D_800559E4 = 0x800559e4
                0x00000000800559e8                D_800559E8 = 0x800559e8
                0x00000000800559f8                D_800559F8 = 0x800559f8
                0x00000000800559fc                D_800559FC = 0x800559fc
                0x0000000080055a10                D_80055A10 = 0x80055a10
                0x0000000080055a13                D_80055A13 = 0x80055a13
                0x0000000080055a24                D_80055A24 = 0x80055a24
                0x0000000080055b40                D_80055B40 = 0x80055b40
                0x0000000080055cf0                D_80055CF0 = 0x80055cf0
                0x0000000080055cf8                D_80055CF8 = 0x80055cf8
                0x0000000080055d40                D_80055D40 = 0x80055d40
                0x0000000080055d44                D_80055D44 = 0x80055d44
                0x0000000080055d7c                D_80055D7C = 0x80055d7c
                0x0000000080055f0c                D_80055F0C = 0x80055f0c
                0x0000000080055f98                D_80055F98 = 0x80055f98
                0x0000000080056088                D_80056088 = 0x80056088
                0x0000000080056198                D_80056198 = 0x80056198
                0x00000000800561a0                D_800561A0 = 0x800561a0
                0x00000000800566c8                D_800566C8 = 0x800566c8
                0x0000000080056718                D_80056718 = 0x80056718
                0x000000008005685a                D_8005685A = 0x8005685a
                0x000000008005685c                D_8005685C = 0x8005685c
                0x0000000080056880                D_80056880 = 0x80056880
                0x00000000800568b8                D_800568B8 = 0x800568b8
                0x0000000080056bb0                D_80056BB0 = 0x80056bb0
                0x0000000080057540                D_80057540 = 0x80057540
                0x0000000080057588                D_80057588 = 0x80057588
                0x000000008005758c                D_8005758C = 0x8005758c
                0x00000000800576c8                D_800576C8 = 0x800576c8
                0x000000008005777c                D_8005777C = 0x8005777c
                0x0000000080057790                D_80057790 = 0x80057790
                0x00000000800579f8                D_800579F8 = 0x800579f8
                0x0000000080057f80                D_80057F80 = 0x80057f80
                0x0000000080058008                D_80058008 = 0x80058008
                0x000000008005839c                D_8005839C = 0x8005839c
                0x000000008005e51c                D_8005E51C = 0x8005e51c
                0x000000008005e5a0                D_8005E5A0 = 0x8005e5a0
                0x000000008005e5ac                D_8005E5AC = 0x8005e5ac
                0x000000008005e9f8                D_8005E9F8 = 0x8005e9f8
                0x0000000080060c48                D_80060C48 = 0x80060c48
                0x0000000080060c4c                D_80060C4C = 0x80060c4c
                0x0000000080060c88                D_80060C88 = 0x80060c88
                0x0000000080060cb0                D_80060CB0 = 0x80060cb0
                0x0000000080060cb4                D_80060CB4 = 0x80060cb4
                0x0000000080060d64                D_80060D64 = 0x80060d64
                0x0000000080060d74                D_80060D74 = 0x80060d74
                0x0000000080060ed8                D_80060ED8 = 0x80060ed8
                0x0000000080060ef0                D_80060EF0 = 0x80060ef0
                0x0000000080060f28                D_80060F28 = 0x80060f28
                0x0000000080060f2c                D_80060F2C = 0x80060f2c
                0x0000000080060f30                D_80060F30 = 0x80060f30
                0x0000000080061184                D_80061184 = 0x80061184
                0x000000008006125c                D_8006125C = 0x8006125c
                0x0000000080061274                D_80061274 = 0x80061274
                0x00000000800614b4                D_800614B4 = 0x800614b4
                0x00000000800614cc                D_800614CC = 0x800614cc
                0x00000000800614e4                D_800614E4 = 0x800614e4
                0x000000008006155c                D_8006155C = 0x8006155c
                0x000000008006156c                D_8006156C = 0x8006156c
                0x000000008006158c                D_8006158C = 0x8006158c
                0x0000000080061598                D_80061598 = 0x80061598
                0x00000000800615a8                D_800615A8 = 0x800615a8
                0x00000000800615ac                D_800615AC = 0x800615ac
                0x00000000800615cc                D_800615CC = 0x800615cc
                0x00000000800615e0                D_800615E0 = 0x800615e0
                0x00000000800615e4                D_800615E4 = 0x800615e4
                0x00000000800615f4                D_800615F4 = 0x800615f4
                0x0000000080061614                D_80061614 = 0x80061614
                0x0000000080061624                D_80061624 = 0x80061624
                0x0000000080061634                D_80061634 = 0x80061634
                0x0000000080061644                D_80061644 = 0x80061644
                0x0000000080061650                D_80061650 = 0x80061650
                0x0000000080061660                D_80061660 = 0x80061660
                0x0000000080061668                D_80061668 = 0x80061668
                0x00000000800616a8                D_800616A8 = 0x800616a8
                0x00000000800616b0                D_800616B0 = 0x800616b0
                0x00000000800616b4                D_800616B4 = 0x800616b4
                0x00000000800616b8                D_800616B8 = 0x800616b8
                0x00000000800616c0                D_800616C0 = 0x800616c0
                0x00000000800616c8                D_800616C8 = 0x800616c8
                0x00000000800616d0                D_800616D0 = 0x800616d0
                0x00000000800616e4                D_800616E4 = 0x800616e4
                0x0000000080061760                D_80061760 = 0x80061760
                0x0000000080061770                D_80061770 = 0x80061770
                0x0000000080061810                D_80061810 = 0x80061810
                0x0000000080061840                D_80061840 = 0x80061840
                0x0000000080061844                D_80061844 = 0x80061844
                0x0000000080061850                D_80061850 = 0x80061850
                0x0000000080061e98                D_80061E98 = 0x80061e98
                0x0000000080066e88                D_80066E88 = 0x80066e88
                0x000000008006c8f8                D_8006C8F8 = 0x8006c8f8
                0x000000008006c90c                D_8006C90C = 0x8006c90c
                0x000000008006c934                D_8006C934 = 0x8006c934
                0x000000008006c938                D_8006C938 = 0x8006c938
                0x000000008006c93c                D_8006C93C = 0x8006c93c
                0x000000008006c940                D_8006C940 = 0x8006c940
                0x000000008006c998                D_8006C998 = 0x8006c998
                0x000000008006c9fc                D_8006C9FC = 0x8006c9fc
                0x000000008006cac4                D_8006CAC4 = 0x8006cac4
                0x000000008006cc28                D_8006CC28 = 0x8006cc28
                0x000000008006cc80                D_8006CC80 = 0x8006cc80
                0x000000008006cc90                D_8006CC90 = 0x8006cc90
                0x000000008006cd00                D_8006CD00 = 0x8006cd00
                0x000000008006cd04                D_8006CD04 = 0x8006cd04
                0x000000008006cd08                D_8006CD08 = 0x8006cd08
                0x000000008006cd0c                D_8006CD0C = 0x8006cd0c
                0x000000008006cd10                D_8006CD10 = 0x8006cd10
                0x000000008006cd20                D_8006CD20 = 0x8006cd20
                0x000000008006cd28                D_8006CD28 = 0x8006cd28
                0x000000008006cd40                D_8006CD40 = 0x8006cd40
                0x000000008006cdf0                D_8006CDF0 = 0x8006cdf0
                0x000000008006d6b0                D_8006D6B0 = 0x8006d6b0
                0x000000008006ded0                D_8006DED0 = 0x8006ded0
                0x000000008006deec                D_8006DEEC = 0x8006deec
                0x000000008006def0                D_8006DEF0 = 0x8006def0
                0x000000008006e6ee                D_8006E6EE = 0x8006e6ee
                0x000000008006e6f0                D_8006E6F0 = 0x8006e6f0
                0x000000008006e700                D_8006E700 = 0x8006e700
                0x000000008006e710                D_8006E710 = 0x8006e710
                0x000000008006e720                D_8006E720 = 0x8006e720
                0x000000008006e750                D_8006E750 = 0x8006e750
                0x000000008006e758                D_8006E758 = 0x8006e758
                0x000000008006e75c                D_8006E75C = 0x8006e75c
                0x000000008006e760                D_8006E760 = 0x8006e760
                0x000000008006e764                D_8006E764 = 0x8006e764
                0x000000008006e770                D_8006E770 = 0x8006e770
                0x000000008006e780                D_8006E780 = 0x8006e780
                0x000000008006e7e0                D_8006E7E0 = 0x8006e7e0
                0x000000008006e7e4                D_8006E7E4 = 0x8006e7e4
                0x000000008006e7f0                D_8006E7F0 = 0x8006e7f0
                0x000000008006e800                D_8006E800 = 0x8006e800
                0x000000008006e824                D_8006E824 = 0x8006e824
                0x000000008006e850                D_8006E850 = 0x8006e850
                0x000000008006e8b8                D_8006E8B8 = 0x8006e8b8
                0x000000008006e940                D_8006E940 = 0x8006e940
                0x000000008006e968                D_8006E968 = 0x8006e968
                0x000000008006e990                D_8006E990 = 0x8006e990
                0x000000008006e9b8                D_8006E9B8 = 0x8006e9b8
                0x000000008006e9e0                D_8006E9E0 = 0x8006e9e0
                0x000000008006eade                D_8006EADE = 0x8006eade
                0x000000008006eae0                D_8006EAE0 = 0x8006eae0
                0x000000008006eb20                D_8006EB20 = 0x8006eb20
                0x000000008006eb30                D_8006EB30 = 0x8006eb30
                0x000000008006eb40                D_8006EB40 = 0x8006eb40
                0x000000008006eb44                D_8006EB44 = 0x8006eb44
                0x000000008006eb50                D_8006EB50 = 0x8006eb50
                0x000000008006eba0                D_8006EBA0 = 0x8006eba0
                0x000000008006ebf0                D_8006EBF0 = 0x8006ebf0
                0x000000008006ec40                D_8006EC40 = 0x8006ec40
                0x000000008006ec54                D_8006EC54 = 0x8006ec54
                0x000000008006ec70                jtbl_8006EC70_main = 0x8006ec70
                0x000000008006ec8c                D_8006EC8C = 0x8006ec8c
                0x000000008006ec90                jtbl_8006EC90_main = 0x8006ec90
                0x000000008006eca4                jtbl_8006ECA4_main = 0x8006eca4
                0x000000008006ecc0                D_8006ECC0 = 0x8006ecc0
                0x000000008006ecd0                D_8006ECD0 = 0x8006ecd0
                0x000000008006ecd8                D_8006ECD8 = 0x8006ecd8
                0x000000008006ecdc                D_8006ECDC = 0x8006ecdc
                0x000000008006ece0                D_8006ECE0 = 0x8006ece0
                0x000000008006ece8                D_8006ECE8 = 0x8006ece8
                0x000000008006ecec                D_8006ECEC = 0x8006ecec
                0x000000008006ecf0                D_8006ECF0 = 0x8006ecf0
                0x000000008006ecf8                D_8006ECF8 = 0x8006ecf8
                0x000000008006ed00                D_8006ED00 = 0x8006ed00
                0x000000008006ed08                D_8006ED08 = 0x8006ed08
                0x000000008006ed10                D_8006ED10 = 0x8006ed10
                0x000000008006ed14                D_8006ED14 = 0x8006ed14
                0x000000008006ed18                D_8006ED18 = 0x8006ed18
                0x000000008006ed20                D_8006ED20 = 0x8006ed20
                0x000000008006ed28                D_8006ED28 = 0x8006ed28
                0x000000008006ed30                D_8006ED30 = 0x8006ed30
                0x000000008006ed38                D_8006ED38 = 0x8006ed38
                0x000000008006ed40                D_8006ED40 = 0x8006ed40
                0x000000008006ed48                D_8006ED48 = 0x8006ed48
                0x000000008006ed50                D_8006ED50 = 0x8006ed50
                0x000000008006ed58                D_8006ED58 = 0x8006ed58
                0x000000008006ed60                D_8006ED60 = 0x8006ed60
                0x000000008006ed68                D_8006ED68 = 0x8006ed68
                0x000000008006ed70                D_8006ED70 = 0x8006ed70
                0x000000008006ed78                D_8006ED78 = 0x8006ed78
                0x000000008006ed80                D_8006ED80 = 0x8006ed80
                0x000000008006ed88                D_8006ED88 = 0x8006ed88
                0x000000008006ed90                D_8006ED90 = 0x8006ed90
                0x000000008006ed98                D_8006ED98 = 0x8006ed98
                0x000000008006eda0                D_8006EDA0 = 0x8006eda0
                0x000000008006eda8                D_8006EDA8 = 0x8006eda8
                0x000000008006edb0                D_8006EDB0 = 0x8006edb0
                0x000000008006edb8                D_8006EDB8 = 0x8006edb8
                0x000000008006edc0                D_8006EDC0 = 0x8006edc0
                0x000000008006edc8                D_8006EDC8 = 0x8006edc8
                0x000000008006edd0                D_8006EDD0 = 0x8006edd0
                0x000000008006edd8                D_8006EDD8 = 0x8006edd8
                0x000000008006ede0                D_8006EDE0 = 0x8006ede0
                0x000000008006ede8                D_8006EDE8 = 0x8006ede8
                0x000000008006edf0                D_8006EDF0 = 0x8006edf0
                0x000000008006edf8                D_8006EDF8 = 0x8006edf8
                0x000000008006ee00                D_8006EE00 = 0x8006ee00
                0x000000008006ee08                D_8006EE08 = 0x8006ee08
                0x000000008006ee10                D_8006EE10 = 0x8006ee10
                0x000000008006ee18                D_8006EE18 = 0x8006ee18
                0x000000008006ee20                D_8006EE20 = 0x8006ee20
                0x000000008006ee28                D_8006EE28 = 0x8006ee28
                0x000000008006ee30                D_8006EE30 = 0x8006ee30
                0x000000008006ee38                D_8006EE38 = 0x8006ee38
                0x000000008006ee40                D_8006EE40 = 0x8006ee40
                0x000000008006ee48                D_8006EE48 = 0x8006ee48
                0x000000008006ee50                D_8006EE50 = 0x8006ee50
                0x000000008006ee58                D_8006EE58 = 0x8006ee58
                0x000000008006ee60                D_8006EE60 = 0x8006ee60
                0x000000008006ee68                D_8006EE68 = 0x8006ee68
                0x000000008006ee70                D_8006EE70 = 0x8006ee70
                0x000000008006ee78                D_8006EE78 = 0x8006ee78
                0x000000008006ee80                D_8006EE80 = 0x8006ee80
                0x000000008006ee88                D_8006EE88 = 0x8006ee88
                0x000000008006ee90                D_8006EE90 = 0x8006ee90
                0x000000008006ee98                D_8006EE98 = 0x8006ee98
                0x000000008006eea0                D_8006EEA0 = 0x8006eea0
                0x000000008006eea8                D_8006EEA8 = 0x8006eea8
                0x000000008006eeb0                D_8006EEB0 = 0x8006eeb0
                0x000000008006eeb8                D_8006EEB8 = 0x8006eeb8
                0x000000008006eec0                D_8006EEC0 = 0x8006eec0
                0x000000008006eec8                D_8006EEC8 = 0x8006eec8
                0x000000008006eed0                D_8006EED0 = 0x8006eed0
                0x000000008006eed8                D_8006EED8 = 0x8006eed8
                0x000000008006eee0                D_8006EEE0 = 0x8006eee0
                0x000000008006eee8                D_8006EEE8 = 0x8006eee8
                0x000000008006eef0                D_8006EEF0 = 0x8006eef0
                0x000000008006eef8                D_8006EEF8 = 0x8006eef8
                0x000000008006ef00                D_8006EF00 = 0x8006ef00
                0x000000008006ef08                D_8006EF08 = 0x8006ef08
                0x000000008006ef10                D_8006EF10 = 0x8006ef10
                0x000000008006ef18                D_8006EF18 = 0x8006ef18
                0x000000008006ef20                D_8006EF20 = 0x8006ef20
                0x000000008006ef28                D_8006EF28 = 0x8006ef28
                0x000000008006ef30                D_8006EF30 = 0x8006ef30
                0x000000008006ef38                D_8006EF38 = 0x8006ef38
                0x000000008006ef40                D_8006EF40 = 0x8006ef40
                0x000000008006ef44                D_8006EF44 = 0x8006ef44
                0x000000008006ef48                D_8006EF48 = 0x8006ef48
                0x000000008006ef50                D_8006EF50 = 0x8006ef50
                0x000000008006ef58                D_8006EF58 = 0x8006ef58
                0x000000008006ef60                D_8006EF60 = 0x8006ef60
                0x000000008006ef68                D_8006EF68 = 0x8006ef68
                0x000000008006ef70                D_8006EF70 = 0x8006ef70
                0x000000008006ef78                D_8006EF78 = 0x8006ef78
                0x000000008006ef7c                D_8006EF7C = 0x8006ef7c
                0x000000008006ef80                D_8006EF80 = 0x8006ef80
                0x000000008006ef88                D_8006EF88 = 0x8006ef88
                0x000000008006ef90                D_8006EF90 = 0x8006ef90
                0x000000008006ef98                D_8006EF98 = 0x8006ef98
                0x000000008006efa0                D_8006EFA0 = 0x8006efa0
                0x000000008006efa8                D_8006EFA8 = 0x8006efa8
                0x000000008006efb0                D_8006EFB0 = 0x8006efb0
                0x000000008006efb8                D_8006EFB8 = 0x8006efb8
                0x000000008006efbc                jtbl_8006EFBC_main = 0x8006efbc
                0x000000008006efe8                D_8006EFE8 = 0x8006efe8
                0x000000008006eff0                D_8006EFF0 = 0x8006eff0
                0x000000008006eff8                D_8006EFF8 = 0x8006eff8
                0x000000008006f000                D_8006F000 = 0x8006f000
                0x000000008006f008                D_8006F008 = 0x8006f008
                0x000000008006f010                D_8006F010 = 0x8006f010
                0x000000008006f020                D_8006F020 = 0x8006f020
                0x000000008006f028                D_8006F028 = 0x8006f028
                0x000000008006f030                D_8006F030 = 0x8006f030
                0x000000008006f038                D_8006F038 = 0x8006f038
                0x000000008006f040                D_8006F040 = 0x8006f040
                0x000000008006f048                D_8006F048 = 0x8006f048
                0x000000008006f050                D_8006F050 = 0x8006f050
                0x000000008006f058                D_8006F058 = 0x8006f058
                0x000000008006f060                D_8006F060 = 0x8006f060
                0x000000008006f068                D_8006F068 = 0x8006f068
                0x000000008006f070                D_8006F070 = 0x8006f070
                0x000000008006f078                D_8006F078 = 0x8006f078
                0x000000008006f080                D_8006F080 = 0x8006f080
                0x000000008006f088                D_8006F088 = 0x8006f088
                0x000000008006f090                D_8006F090 = 0x8006f090
                0x000000008006f0a0                D_8006F0A0 = 0x8006f0a0
                0x000000008006f0a8                D_8006F0A8 = 0x8006f0a8
                0x000000008006f0b0                D_8006F0B0 = 0x8006f0b0
                0x000000008006f0b8                D_8006F0B8 = 0x8006f0b8
                0x000000008006f0c0                D_8006F0C0 = 0x8006f0c0
                0x000000008006f0c8                D_8006F0C8 = 0x8006f0c8
                0x000000008006f0d0                D_8006F0D0 = 0x8006f0d0
                0x000000008006f0d8                D_8006F0D8 = 0x8006f0d8
                0x000000008006f0e0                D_8006F0E0 = 0x8006f0e0
                0x000000008006f0f0                D_8006F0F0 = 0x8006f0f0
                0x000000008006f100                D_8006F100 = 0x8006f100
                0x000000008006f108                D_8006F108 = 0x8006f108
                0x000000008006f110                D_8006F110 = 0x8006f110
                0x000000008006f118                D_8006F118 = 0x8006f118
                0x000000008006f120                D_8006F120 = 0x8006f120
                0x000000008006f130                D_8006F130 = 0x8006f130
                0x000000008006f138                D_8006F138 = 0x8006f138
                0x000000008006f140                D_8006F140 = 0x8006f140
                0x000000008006f150                D_8006F150 = 0x8006f150
                0x000000008006f158                D_8006F158 = 0x8006f158
                0x000000008006f160                D_8006F160 = 0x8006f160
                0x000000008006f168                D_8006F168 = 0x8006f168
                0x000000008006f170                D_8006F170 = 0x8006f170
                0x000000008006f174                D_8006F174 = 0x8006f174
                0x000000008006f178                D_8006F178 = 0x8006f178
                0x000000008006f180                D_8006F180 = 0x8006f180
                0x000000008006f188                D_8006F188 = 0x8006f188
                0x000000008006f190                D_8006F190 = 0x8006f190
                0x000000008006f198                D_8006F198 = 0x8006f198
                0x000000008006f1a0                D_8006F1A0 = 0x8006f1a0
                0x000000008006f1a8                D_8006F1A8 = 0x8006f1a8
                0x000000008006f1b0                D_8006F1B0 = 0x8006f1b0
                0x000000008006f1b8                D_8006F1B8 = 0x8006f1b8
                0x000000008006f1c0                D_8006F1C0 = 0x8006f1c0
                0x000000008006f1c8                D_8006F1C8 = 0x8006f1c8
                0x000000008006f1d0                D_8006F1D0 = 0x8006f1d0
                0x000000008006f1d8                D_8006F1D8 = 0x8006f1d8
                0x000000008006f1e0                D_8006F1E0 = 0x8006f1e0
                0x000000008006f1e8                D_8006F1E8 = 0x8006f1e8
                0x000000008006f1f0                D_8006F1F0 = 0x8006f1f0
                0x000000008006f1f8                D_8006F1F8 = 0x8006f1f8
                0x000000008006f200                D_8006F200 = 0x8006f200
                0x000000008006f208                D_8006F208 = 0x8006f208
                0x000000008006f210                D_8006F210 = 0x8006f210
                0x000000008006f218                D_8006F218 = 0x8006f218
                0x000000008006f220                D_8006F220 = 0x8006f220
                0x000000008006f228                D_8006F228 = 0x8006f228
                0x000000008006f230                D_8006F230 = 0x8006f230
                0x000000008006f238                D_8006F238 = 0x8006f238
                0x000000008006f240                D_8006F240 = 0x8006f240
                0x000000008006f248                D_8006F248 = 0x8006f248
                0x000000008006f250                D_8006F250 = 0x8006f250
                0x000000008006f258                D_8006F258 = 0x8006f258
                0x000000008006f260                D_8006F260 = 0x8006f260
                0x000000008006f268                D_8006F268 = 0x8006f268
                0x000000008006f26c                D_8006F26C = 0x8006f26c
                0x000000008006f270                D_8006F270 = 0x8006f270
                0x000000008006f278                D_8006F278 = 0x8006f278
                0x000000008006f280                D_8006F280 = 0x8006f280
                0x000000008006f288                D_8006F288 = 0x8006f288
                0x000000008006f290                D_8006F290 = 0x8006f290
                0x000000008006f298                D_8006F298 = 0x8006f298
                0x000000008006f2a0                D_8006F2A0 = 0x8006f2a0
                0x000000008006f2a8                D_8006F2A8 = 0x8006f2a8
                0x000000008006f2b0                D_8006F2B0 = 0x8006f2b0
                0x000000008006f2b8                D_8006F2B8 = 0x8006f2b8
                0x000000008006f2c0                D_8006F2C0 = 0x8006f2c0
                0x000000008006f2c8                D_8006F2C8 = 0x8006f2c8
                0x000000008006f2d0                D_8006F2D0 = 0x8006f2d0
                0x000000008006f2d8                D_8006F2D8 = 0x8006f2d8
                0x000000008006f2e0                D_8006F2E0 = 0x8006f2e0
                0x000000008006f2f0                D_8006F2F0 = 0x8006f2f0
                0x000000008006f2f8                D_8006F2F8 = 0x8006f2f8
                0x000000008006f300                D_8006F300 = 0x8006f300
                0x000000008006f308                D_8006F308 = 0x8006f308
                0x000000008006f310                D_8006F310 = 0x8006f310
                0x000000008006f318                D_8006F318 = 0x8006f318
                0x000000008006f320                D_8006F320 = 0x8006f320
                0x000000008006f328                D_8006F328 = 0x8006f328
                0x000000008006f330                D_8006F330 = 0x8006f330
                0x000000008006f338                D_8006F338 = 0x8006f338
                0x000000008006f340                D_8006F340 = 0x8006f340
                0x000000008006f348                D_8006F348 = 0x8006f348
                0x000000008006f350                D_8006F350 = 0x8006f350
                0x000000008006f358                D_8006F358 = 0x8006f358
                0x000000008006f360                D_8006F360 = 0x8006f360
                0x000000008006f368                D_8006F368 = 0x8006f368
                0x000000008006f370                D_8006F370 = 0x8006f370
                0x000000008006f378                D_8006F378 = 0x8006f378
                0x000000008006f380                D_8006F380 = 0x8006f380
                0x000000008006f390                D_8006F390 = 0x8006f390
                0x000000008006f394                D_8006F394 = 0x8006f394
                0x000000008006f398                D_8006F398 = 0x8006f398
                0x000000008006f3a0                D_8006F3A0 = 0x8006f3a0
                0x000000008006f3a8                D_8006F3A8 = 0x8006f3a8
                0x000000008006f3b0                D_8006F3B0 = 0x8006f3b0
                0x000000008006f3b8                D_8006F3B8 = 0x8006f3b8
                0x000000008006f3c0                D_8006F3C0 = 0x8006f3c0
                0x000000008006f3c8                D_8006F3C8 = 0x8006f3c8
                0x000000008006f3d0                D_8006F3D0 = 0x8006f3d0
                0x000000008006f3d8                D_8006F3D8 = 0x8006f3d8
                0x000000008006f3e0                D_8006F3E0 = 0x8006f3e0
                0x000000008006f3e8                D_8006F3E8 = 0x8006f3e8
                0x000000008006f3f0                D_8006F3F0 = 0x8006f3f0
                0x000000008006f3f8                D_8006F3F8 = 0x8006f3f8
                0x000000008006f400                D_8006F400 = 0x8006f400
                0x000000008006f408                D_8006F408 = 0x8006f408
                0x000000008006f410                D_8006F410 = 0x8006f410
                0x000000008006f418                D_8006F418 = 0x8006f418
                0x000000008006f420                D_8006F420 = 0x8006f420
                0x000000008006f428                D_8006F428 = 0x8006f428
                0x000000008006f430                D_8006F430 = 0x8006f430
                0x000000008006f438                D_8006F438 = 0x8006f438
                0x000000008006f440                D_8006F440 = 0x8006f440
                0x000000008006f448                D_8006F448 = 0x8006f448
                0x000000008006f450                D_8006F450 = 0x8006f450
                0x000000008006f458                D_8006F458 = 0x8006f458
                0x000000008006f460                D_8006F460 = 0x8006f460
                0x000000008006f468                D_8006F468 = 0x8006f468
                0x000000008006f470                D_8006F470 = 0x8006f470
                0x000000008006f480                jtbl_8006F480_main = 0x8006f480
                0x000000008006f4a0                D_8006F4A0 = 0x8006f4a0
                0x000000008006f4a8                D_8006F4A8 = 0x8006f4a8
                0x000000008006f4b0                D_8006F4B0 = 0x8006f4b0
                0x000000008006f4b8                D_8006F4B8 = 0x8006f4b8
                0x000000008006f4c0                D_8006F4C0 = 0x8006f4c0
                0x000000008006f4c8                D_8006F4C8 = 0x8006f4c8
                0x000000008006f4d0                D_8006F4D0 = 0x8006f4d0
                0x000000008006f4d8                D_8006F4D8 = 0x8006f4d8
                0x000000008006f4e0                D_8006F4E0 = 0x8006f4e0
                0x000000008006f4e8                D_8006F4E8 = 0x8006f4e8
                0x000000008006f4f0                D_8006F4F0 = 0x8006f4f0
                0x000000008006f4f8                D_8006F4F8 = 0x8006f4f8
                0x000000008006f500                D_8006F500 = 0x8006f500
                0x000000008006f508                D_8006F508 = 0x8006f508
                0x000000008006f510                D_8006F510 = 0x8006f510
                0x000000008006f518                D_8006F518 = 0x8006f518
                0x000000008006f520                D_8006F520 = 0x8006f520
                0x000000008006f528                D_8006F528 = 0x8006f528
                0x000000008006f52c                D_8006F52C = 0x8006f52c
                0x000000008006f538                D_8006F538 = 0x8006f538
                0x000000008006f540                D_8006F540 = 0x8006f540
                0x000000008006f548                D_8006F548 = 0x8006f548
                0x000000008006f550                D_8006F550 = 0x8006f550
                0x000000008006f558                D_8006F558 = 0x8006f558
                0x000000008006f560                D_8006F560 = 0x8006f560
                0x000000008006f570                D_8006F570 = 0x8006f570
                0x000000008006f578                D_8006F578 = 0x8006f578
                0x000000008006f580                D_8006F580 = 0x8006f580
                0x000000008006f588                D_8006F588 = 0x8006f588
                0x000000008006f590                D_8006F590 = 0x8006f590
                0x000000008006f598                D_8006F598 = 0x8006f598
                0x000000008006f5a0                jtbl_8006F5A0_main = 0x8006f5a0
                0x000000008006f5b4                jtbl_8006F5B4_main = 0x8006f5b4
                0x000000008006f5d0                D_8006F5D0 = 0x8006f5d0
                0x000000008006f5d8                D_8006F5D8 = 0x8006f5d8
                0x000000008006f5e0                D_8006F5E0 = 0x8006f5e0
                0x000000008006f5e8                jtbl_8006F5E8_main = 0x8006f5e8
                0x000000008006f610                D_8006F610 = 0x8006f610
                0x000000008006f624                jtbl_8006F624_main = 0x8006f624
                0x000000008006f640                jtbl_8006F640_main = 0x8006f640
                0x000000008006f684                jtbl_8006F684_main = 0x8006f684
                0x000000008006f6d4                jtbl_8006F6D4_main = 0x8006f6d4
                0x000000008006f724                jtbl_8006F724_main = 0x8006f724
                0x000000008006f774                jtbl_8006F774_main = 0x8006f774
                0x000000008006f7c4                jtbl_8006F7C4_main = 0x8006f7c4
                0x000000008006f80c                jtbl_8006F80C_main = 0x8006f80c
                0x000000008006f84c                jtbl_8006F84C_main = 0x8006f84c
                0x000000008006f890                jtbl_8006F890_main = 0x8006f890
                0x000000008006f910                jtbl_8006F910_main = 0x8006f910
                0x000000008006f940                D_8006F940 = 0x8006f940
                0x000000008006f950                D_8006F950 = 0x8006f950
                0x000000008006f9d0                D_8006F9D0 = 0x8006f9d0
                0x000000008006f9e0                D_8006F9E0 = 0x8006f9e0
                0x000000008006fa08                D_8006FA08 = 0x8006fa08
                0x000000008006fa10                D_8006FA10 = 0x8006fa10
                0x000000008006fa18                D_8006FA18 = 0x8006fa18
                0x000000008006fa20                D_8006FA20 = 0x8006fa20
                0x000000008006fa30                D_8006FA30 = 0x8006fa30
                0x000000008006fa40                D_8006FA40 = 0x8006fa40
                0x000000008006fa68                D_8006FA68 = 0x8006fa68
                0x000000008006fa70                D_8006FA70 = 0x8006fa70
                0x000000008006fa78                D_8006FA78 = 0x8006fa78
                0x000000008006fa80                D_8006FA80 = 0x8006fa80
                0x000000008006fa90                D_8006FA90 = 0x8006fa90
                0x000000008006fa98                D_8006FA98 = 0x8006fa98
                0x000000008006faa0                jtbl_8006FAA0_main = 0x8006faa0
                0x000000008006fc24                jtbl_8006FC24_main = 0x8006fc24
                0x000000008006fc84                jtbl_8006FC84_main = 0x8006fc84
                0x000000008006fcd4                D_8006FCD4 = 0x8006fcd4
                0x000000008006fce0                D_8006FCE0 = 0x8006fce0
                0x000000008006fce8                D_8006FCE8 = 0x8006fce8
                0x000000008006fcf0                D_8006FCF0 = 0x8006fcf0
                0x000000008006fcf8                jtbl_8006FCF8_main = 0x8006fcf8
                0x000000008006fd20                D_8006FD20 = 0x8006fd20
                0x000000008006fd28                D_8006FD28 = 0x8006fd28
                0x000000008006fd30                D_8006FD30 = 0x8006fd30
                0x000000008006fd50                jtbl_8006FD50_main = 0x8006fd50
                0x000000008006fd80                jtbl_8006FD80_main = 0x8006fd80
                0x000000008006fda0                D_8006FDA0 = 0x8006fda0
                0x000000008006fdb0                D_8006FDB0 = 0x8006fdb0
                0x000000008006fdb4                D_8006FDB4 = 0x8006fdb4
                0x000000008006fdbc                D_8006FDBC = 0x8006fdbc
                0x000000008006fdd4                jtbl_8006FDD4_main = 0x8006fdd4
                0x000000008006feb0                jtbl_8006FEB0_main = 0x8006feb0
                0x000000008006fec8                D_8006FEC8 = 0x8006fec8
                0x000000008006fed0                jtbl_8006FED0_main = 0x8006fed0
                0x000000008006fef8                D_8006FEF8 = 0x8006fef8
                0x000000008006ff00                D_8006FF00 = 0x8006ff00
                0x000000008006ff10                D_8006FF10 = 0x8006ff10
                0x000000008006ff18                D_8006FF18 = 0x8006ff18
                0x000000008006ff20                jtbl_8006FF20_main = 0x8006ff20
                0x000000008006ff70                jtbl_8006FF70_main = 0x8006ff70
                0x0000000080070000                D_80070000 = 0x80070000
                0x00000000800700f4                jtbl_800700F4_main = 0x800700f4
                0x0000000080070148                jtbl_80070148_main = 0x80070148
                0x00000000800701a8                D_800701A8 = 0x800701a8
                0x00000000800701b0                D_800701B0 = 0x800701b0
                0x00000000800701b4                D_800701B4 = 0x800701b4
                0x00000000800701c0                D_800701C0 = 0x800701c0
                0x0000000080070208                D_80070208 = 0x80070208
                0x000000008007020c                D_8007020C = 0x8007020c
                0x0000000080070210                D_80070210 = 0x80070210
                0x0000000080070218                D_80070218 = 0x80070218
                0x0000000080070220                jtbl_80070220_main = 0x80070220
                0x0000000080070240                D_80070240 = 0x80070240
                0x0000000080070250                D_80070250 = 0x80070250
                0x0000000080070258                D_80070258 = 0x80070258
                0x0000000080070260                D_80070260 = 0x80070260
                0x0000000080070a60                D_80070A60 = 0x80070a60
                0x0000000080070d20                D_80070D20 = 0x80070d20
                0x0000000080072d20                D_80072D20 = 0x80072d20
                0x0000000080072ed0                D_80072ED0 = 0x80072ed0
                0x0000000080074080                D_80074080 = 0x80074080
                0x0000000080077080                D_80077080 = 0x80077080
                0x0000000080077098                D_80077098 = 0x80077098
                0x0000000080078160                D_80078160 = 0x80078160
                0x0000000080079160                D_80079160 = 0x80079160
                0x000000008007a160                D_8007A160 = 0x8007a160
                0x000000008007a170                D_8007A170 = 0x8007a170
                0x000000008007a172                D_8007A172 = 0x8007a172
                0x000000008007a174                D_8007A174 = 0x8007a174
                0x000000008007a178                D_8007A178 = 0x8007a178
                0x000000008007a17a                D_8007A17A = 0x8007a17a
                0x000000008007a17c                D_8007A17C = 0x8007a17c
                0x000000008007a180                D_8007A180 = 0x8007a180
                0x000000008007a184                D_8007A184 = 0x8007a184
                0x000000008007a188                D_8007A188 = 0x8007a188
                0x000000008007a18c                D_8007A18C = 0x8007a18c
                0x000000008007a190                D_8007A190 = 0x8007a190
                0x000000008007a1a0                D_8007A1A0 = 0x8007a1a0
                0x000000008007a1a2                D_8007A1A2 = 0x8007a1a2
                0x000000008007a1a8                D_8007A1A8 = 0x8007a1a8
                0x000000008007a1c0                D_8007A1C0 = 0x8007a1c0
                0x000000008007a1c4                D_8007A1C4 = 0x8007a1c4
                0x000000008007a1c8                D_8007A1C8 = 0x8007a1c8
                0x000000008007a1cc                D_8007A1CC = 0x8007a1cc
                0x000000008007a1cd                D_8007A1CD = 0x8007a1cd
                0x000000008007a1d0                D_8007A1D0 = 0x8007a1d0
                0x000000008007a1d4                D_8007A1D4 = 0x8007a1d4
                0x000000008007a1d8                D_8007A1D8 = 0x8007a1d8
                0x000000008007a1e0                D_8007A1E0 = 0x8007a1e0
                0x000000008007a254                D_8007A254 = 0x8007a254
                0x000000008007a860                D_8007A860 = 0x8007a860
                0x000000008007a868                D_8007A868 = 0x8007a868
                0x000000008007a870                D_8007A870 = 0x8007a870
                0x000000008007a888                D_8007A888 = 0x8007a888
                0x000000008007a8a8                D_8007A8A8 = 0x8007a8a8
                0x000000008007a8ac                D_8007A8AC = 0x8007a8ac
                0x000000008007a8b0                D_8007A8B0 = 0x8007a8b0
                0x000000008007a8b8                D_8007A8B8 = 0x8007a8b8
                0x000000008007a8bc                D_8007A8BC = 0x8007a8bc
                0x000000008007a8e0                D_8007A8E0 = 0x8007a8e0
                0x000000008007a8e4                D_8007A8E4 = 0x8007a8e4
                0x000000008007a8e8                D_8007A8E8 = 0x8007a8e8
                0x000000008007a8f0                D_8007A8F0 = 0x8007a8f0
                0x000000008007a8f4                D_8007A8F4 = 0x8007a8f4
                0x000000008007a8f8                D_8007A8F8 = 0x8007a8f8
                0x000000008007a8fc                D_8007A8FC = 0x8007a8fc
                0x000000008007a900                D_8007A900 = 0x8007a900
                0x000000008007a904                D_8007A904 = 0x8007a904
                0x000000008007a908                D_8007A908 = 0x8007a908
                0x000000008007a90c                D_8007A90C = 0x8007a90c
                0x000000008007a910                D_8007A910 = 0x8007a910
                0x000000008007a918                D_8007A918 = 0x8007a918
                0x000000008007a91c                D_8007A91C = 0x8007a91c
                0x000000008007a928                D_8007A928 = 0x8007a928
                0x000000008007a92c                D_8007A92C = 0x8007a92c
                0x000000008007a988                D_8007A988 = 0x8007a988
                0x000000008007a98c                D_8007A98C = 0x8007a98c
                0x000000008007a990                D_8007A990 = 0x8007a990
                0x000000008007a994                D_8007A994 = 0x8007a994
                0x000000008007a998                D_8007A998 = 0x8007a998
                0x000000008007a99c                D_8007A99C = 0x8007a99c
                0x000000008007a9a0                D_8007A9A0 = 0x8007a9a0
                0x000000008007a9a4                D_8007A9A4 = 0x8007a9a4
                0x000000008007a9a8                D_8007A9A8 = 0x8007a9a8
                0x000000008007a9ac                D_8007A9AC = 0x8007a9ac
                0x000000008007a9ae                D_8007A9AE = 0x8007a9ae
                0x000000008007a9b0                D_8007A9B0 = 0x8007a9b0
                0x000000008007a9b4                D_8007A9B4 = 0x8007a9b4
                0x000000008007a9b8                D_8007A9B8 = 0x8007a9b8
                0x000000008007a9bc                D_8007A9BC = 0x8007a9bc
                0x000000008007a9bf                D_8007A9BF = 0x8007a9bf
                0x000000008007a9c0                D_8007A9C0 = 0x8007a9c0
                0x000000008007a9c4                D_8007A9C4 = 0x8007a9c4
                0x000000008007a9c8                D_8007A9C8 = 0x8007a9c8
                0x000000008007a9cc                D_8007A9CC = 0x8007a9cc
                0x000000008007a9d0                D_8007A9D0 = 0x8007a9d0
                0x000000008007a9d4                D_8007A9D4 = 0x8007a9d4
                0x000000008007a9d6                D_8007A9D6 = 0x8007a9d6
                0x000000008007a9d8                D_8007A9D8 = 0x8007a9d8
                0x000000008007a9da                D_8007A9DA = 0x8007a9da
                0x000000008007a9dc                D_8007A9DC = 0x8007a9dc
                0x000000008007a9de                D_8007A9DE = 0x8007a9de
                0x000000008007a9e0                D_8007A9E0 = 0x8007a9e0
                0x000000008007a9f4                D_8007A9F4 = 0x8007a9f4
                0x000000008007a9f5                D_8007A9F5 = 0x8007a9f5
                0x000000008007a9f6                D_8007A9F6 = 0x8007a9f6
                0x000000008007a9f7                D_8007A9F7 = 0x8007a9f7
                0x000000008007a9f8                D_8007A9F8 = 0x8007a9f8
                0x000000008007a9fa                D_8007A9FA = 0x8007a9fa
                0x000000008007a9fc                D_8007A9FC = 0x8007a9fc
                0x000000008007a9fe                D_8007A9FE = 0x8007a9fe
                0x000000008007aa00                D_8007AA00 = 0x8007aa00
                0x000000008007aa01                D_8007AA01 = 0x8007aa01
                0x000000008007aa02                D_8007AA02 = 0x8007aa02
                0x000000008007aa03                D_8007AA03 = 0x8007aa03
                0x000000008007aa04                D_8007AA04 = 0x8007aa04
                0x000000008007aa08                D_8007AA08 = 0x8007aa08
                0x000000008007aa0a                D_8007AA0A = 0x8007aa0a
                0x000000008007aa0c                D_8007AA0C = 0x8007aa0c
                0x000000008007aa0e                D_8007AA0E = 0x8007aa0e
                0x000000008007aa10                D_8007AA10 = 0x8007aa10
                0x000000008007aa18                D_8007AA18 = 0x8007aa18
                0x000000008007aa1c                D_8007AA1C = 0x8007aa1c
                0x000000008007aa20                D_8007AA20 = 0x8007aa20
                0x000000008007aa24                D_8007AA24 = 0x8007aa24
                0x000000008007aa28                D_8007AA28 = 0x8007aa28
                0x000000008007aa2c                D_8007AA2C = 0x8007aa2c
                0x000000008007aa30                D_8007AA30 = 0x8007aa30
                0x000000008007aa34                D_8007AA34 = 0x8007aa34
                0x000000008007aa38                D_8007AA38 = 0x8007aa38
                0x000000008007aa40                D_8007AA40 = 0x8007aa40
                0x000000008007aa44                D_8007AA44 = 0x8007aa44
                0x000000008007aa48                D_8007AA48 = 0x8007aa48
                0x000000008007aa4c                D_8007AA4C = 0x8007aa4c
                0x000000008007aa50                D_8007AA50 = 0x8007aa50
                0x000000008007aa54                D_8007AA54 = 0x8007aa54
                0x000000008007aa70                D_8007AA70 = 0x8007aa70
                0x000000008007aa72                D_8007AA72 = 0x8007aa72
                0x000000008007aa74                D_8007AA74 = 0x8007aa74
                0x000000008007aa78                D_8007AA78 = 0x8007aa78
                0x000000008007aa80                D_8007AA80 = 0x8007aa80
                0x000000008007aa82                D_8007AA82 = 0x8007aa82
                0x000000008007aa84                D_8007AA84 = 0x8007aa84
                0x000000008007aa88                D_8007AA88 = 0x8007aa88
                0x000000008007aa8c                D_8007AA8C = 0x8007aa8c
                0x000000008007ab14                D_8007AB14 = 0x8007ab14
                0x000000008007ab18                D_8007AB18 = 0x8007ab18
                0x000000008007ab24                D_8007AB24 = 0x8007ab24
                0x000000008007ab34                D_8007AB34 = 0x8007ab34
                0x000000008007ab38                D_8007AB38 = 0x8007ab38
                0x000000008007ab3c                D_8007AB3C = 0x8007ab3c
                0x000000008007ab40                D_8007AB40 = 0x8007ab40
                0x000000008007ab48                D_8007AB48 = 0x8007ab48
                0x000000008007ab60                D_8007AB60 = 0x8007ab60
                0x000000008007ab70                D_8007AB70 = 0x8007ab70
                0x000000008007ab74                D_8007AB74 = 0x8007ab74
                0x000000008007ab78                D_8007AB78 = 0x8007ab78
                0x000000008007ab88                D_8007AB88 = 0x8007ab88
                0x000000008007aba4                D_8007ABA4 = 0x8007aba4
                0x000000008007aba8                D_8007ABA8 = 0x8007aba8
                0x000000008007abb0                D_8007ABB0 = 0x8007abb0
                0x000000008007abf0                D_8007ABF0 = 0x8007abf0
                0x000000008007ac70                D_8007AC70 = 0x8007ac70
                0x000000008007b430                D_8007B430 = 0x8007b430
                0x000000008007b7e2                D_8007B7E2 = 0x8007b7e2
                0x000000008007b8e0                D_8007B8E0 = 0x8007b8e0
                0x000000008007b900                D_8007B900 = 0x8007b900
                0x000000008007b908                D_8007B908 = 0x8007b908
                0x000000008007b918                D_8007B918 = 0x8007b918
                0x000000008007b928                D_8007B928 = 0x8007b928
                0x000000008007b92c                D_8007B92C = 0x8007b92c
                0x000000008007b930                D_8007B930 = 0x8007b930
                0x000000008007b934                D_8007B934 = 0x8007b934
                0x000000008007b984                D_8007B984 = 0x8007b984
                0x000000008007b99c                D_8007B99C = 0x8007b99c
                0x000000008007ba2c                D_8007BA2C = 0x8007ba2c
                0x000000008007ba38                D_8007BA38 = 0x8007ba38
                0x000000008007bb5c                D_8007BB5C = 0x8007bb5c
                0x000000008007c028                D_8007C028 = 0x8007c028
                0x000000008007c02c                D_8007C02C = 0x8007c02c
                0x000000008007c030                D_8007C030 = 0x8007c030
                0x000000008007c048                D_8007C048 = 0x8007c048
                0x000000008007c04c                D_8007C04C = 0x8007c04c
                0x000000008007c050                D_8007C050 = 0x8007c050
                0x000000008007c05c                D_8007C05C = 0x8007c05c
                0x000000008007c060                D_8007C060 = 0x8007c060
                0x000000008007c064                D_8007C064 = 0x8007c064
                0x000000008007c068                D_8007C068 = 0x8007c068
                0x000000008007c06c                D_8007C06C = 0x8007c06c
                0x000000008007c070                D_8007C070 = 0x8007c070
                0x000000008007c074                D_8007C074 = 0x8007c074
                0x000000008007c080                D_8007C080 = 0x8007c080
                0x000000008007c0b0                D_8007C0B0 = 0x8007c0b0
                0x000000008007c0d0                D_8007C0D0 = 0x8007c0d0
                0x000000008007c13c                D_8007C13C = 0x8007c13c
                0x000000008007c140                D_8007C140 = 0x8007c140
                0x000000008007c148                D_8007C148 = 0x8007c148
                0x000000008007c174                D_8007C174 = 0x8007c174
                0x000000008007c178                D_8007C178 = 0x8007c178
                0x000000008007c17c                D_8007C17C = 0x8007c17c
                0x000000008007c184                D_8007C184 = 0x8007c184
                0x000000008007c198                D_8007C198 = 0x8007c198
                0x000000008007c19c                D_8007C19C = 0x8007c19c
                0x000000008007c1a0                D_8007C1A0 = 0x8007c1a0
                0x000000008007c1a4                D_8007C1A4 = 0x8007c1a4
                0x000000008007c1a8                D_8007C1A8 = 0x8007c1a8
                0x000000008007c1c6                D_8007C1C6 = 0x8007c1c6
                0x000000008007c1cc                D_8007C1CC = 0x8007c1cc
                0x000000008007c1d8                D_8007C1D8 = 0x8007c1d8
                0x000000008007c280                D_8007C280 = 0x8007c280
                0x000000008007c282                D_8007C282 = 0x8007c282
                0x000000008007c284                D_8007C284 = 0x8007c284
                0x000000008007c288                D_8007C288 = 0x8007c288
                0x000000008007c28c                D_8007C28C = 0x8007c28c
                0x000000008007c290                D_8007C290 = 0x8007c290
                0x000000008007c294                D_8007C294 = 0x8007c294
                0x000000008007c298                D_8007C298 = 0x8007c298
                0x000000008007c29c                D_8007C29C = 0x8007c29c
                0x000000008007c2a0                D_8007C2A0 = 0x8007c2a0
                0x000000008007c2a4                D_8007C2A4 = 0x8007c2a4
                0x000000008007c2a8                D_8007C2A8 = 0x8007c2a8
                0x000000008007c6a8                D_8007C6A8 = 0x8007c6a8
                0x000000008007c6ac                D_8007C6AC = 0x8007c6ac
                0x000000008007c6b0                D_8007C6B0 = 0x8007c6b0
                0x00000000800806b0                D_800806B0 = 0x800806b0
                0x00000000800808b0                D_800808B0 = 0x800808b0
                0x00000000800810b0                D_800810B0 = 0x800810b0
                0x00000000800814b0                D_800814B0 = 0x800814b0
                0x0000000080081ab0                D_80081AB0 = 0x80081ab0
                0x0000000080081b78                D_80081B78 = 0x80081b78
                0x0000000080081b7a                D_80081B7A = 0x80081b7a
                0x0000000080081c3e                D_80081C3E = 0x80081c3e
                0x0000000080081c40                D_80081C40 = 0x80081c40
                0x0000000080081c42                D_80081C42 = 0x80081c42
                0x0000000080081cb0                D_80081CB0 = 0x80081cb0
                0x0000000080081cb4                D_80081CB4 = 0x80081cb4
                0x0000000080081cb8                D_80081CB8 = 0x80081cb8
                0x0000000080081cbc                D_80081CBC = 0x80081cbc
                0x0000000080081cc0                D_80081CC0 = 0x80081cc0
                0x0000000080081cc4                D_80081CC4 = 0x80081cc4
                0x0000000080081cc8                D_80081CC8 = 0x80081cc8
                0x0000000080081ccc                D_80081CCC = 0x80081ccc
                0x0000000080081cd0                D_80081CD0 = 0x80081cd0
                0x0000000080081cd4                D_80081CD4 = 0x80081cd4
                0x0000000080081cd8                D_80081CD8 = 0x80081cd8
                0x0000000080081cdc                D_80081CDC = 0x80081cdc
                0x0000000080081ce0                D_80081CE0 = 0x80081ce0
                0x0000000080081ce8                D_80081CE8 = 0x80081ce8
                0x0000000080081d00                D_80081D00 = 0x80081d00
                0x0000000080081d18                D_80081D18 = 0x80081d18
                0x0000000080081d30                D_80081D30 = 0x80081d30
                0x0000000080081fe8                D_80081FE8 = 0x80081fe8
                0x0000000080081ff0                D_80081FF0 = 0x80081ff0
                0x0000000080082000                D_80082000 = 0x80082000
                0x0000000080082020                D_80082020 = 0x80082020
                0x0000000080082030                D_80082030 = 0x80082030
                0x0000000080082048                D_80082048 = 0x80082048
                0x0000000080082058                D_80082058 = 0x80082058
                0x0000000080082458                D_80082458 = 0x80082458
                0x0000000080082858                D_80082858 = 0x80082858
                0x0000000080082860                D_80082860 = 0x80082860
                0x0000000080082c60                D_80082C60 = 0x80082c60
                0x0000000080083060                D_80083060 = 0x80083060
                0x0000000080083068                D_80083068 = 0x80083068
                0x0000000080083468                D_80083468 = 0x80083468
                0x0000000080083470                D_80083470 = 0x80083470
                0x0000000080083550                D_80083550 = 0x80083550
                0x0000000080083558                D_80083558 = 0x80083558
                0x0000000080083638                D_80083638 = 0x80083638
                0x0000000080084238                D_80084238 = 0x80084238
                0x00000000800842a8                D_800842A8 = 0x800842a8
                0x00000000800842ac                D_800842AC = 0x800842ac
                0x00000000800842b0                D_800842B0 = 0x800842b0
                0x00000000800842b4                D_800842B4 = 0x800842b4
                0x00000000800842b8                D_800842B8 = 0x800842b8
                0x00000000800842bc                D_800842BC = 0x800842bc
                0x00000000800842c0                D_800842C0 = 0x800842c0
                0x00000000800842c4                D_800842C4 = 0x800842c4
                0x00000000800842c8                D_800842C8 = 0x800842c8
                0x00000000800842cc                D_800842CC = 0x800842cc
                0x00000000800842d0                D_800842D0 = 0x800842d0
                0x00000000800842d4                D_800842D4 = 0x800842d4
                0x00000000800842d8                D_800842D8 = 0x800842d8
                0x00000000800842dc                D_800842DC = 0x800842dc
                0x00000000800842e0                D_800842E0 = 0x800842e0
                0x00000000800842e4                D_800842E4 = 0x800842e4
                0x00000000800842e8                D_800842E8 = 0x800842e8
                0x00000000800842f0                D_800842F0 = 0x800842f0
                0x0000000080084300                D_80084300 = 0x80084300
                0x0000000080084308                D_80084308 = 0x80084308
                0x000000008008430c                D_8008430C = 0x8008430c
                0x0000000080084314                D_80084314 = 0x80084314
                0x0000000080084318                D_80084318 = 0x80084318
                0x0000000080084320                D_80084320 = 0x80084320
                0x0000000080084330                D_80084330 = 0x80084330
                0x0000000080084334                D_80084334 = 0x80084334
                0x0000000080084338                D_80084338 = 0x80084338
                0x000000008008433c                D_8008433C = 0x8008433c
                0x0000000080084340                D_80084340 = 0x80084340
                0x0000000080084344                D_80084344 = 0x80084344
                0x0000000080084348                D_80084348 = 0x80084348
                0x0000000080084350                D_80084350 = 0x80084350
                0x0000000080084550                D_80084550 = 0x80084550
                0x0000000080084590                D_80084590 = 0x80084590
                0x00000000800845c8                D_800845C8 = 0x800845c8
                0x0000000080084600                D_80084600 = 0x80084600
                0x00000000800847c0                D_800847C0 = 0x800847c0
                0x0000000080084980                D_80084980 = 0x80084980
                0x0000000080084984                D_80084984 = 0x80084984
                0x0000000080084988                D_80084988 = 0x80084988
                0x000000008008498c                D_8008498C = 0x8008498c
                0x0000000080084990                D_80084990 = 0x80084990
                0x0000000080084992                D_80084992 = 0x80084992
                0x0000000080084994                D_80084994 = 0x80084994
                0x0000000080084998                D_80084998 = 0x80084998
                0x00000000800849c4                D_800849C4 = 0x800849c4
                0x0000000080084ae8                D_80084AE8 = 0x80084ae8
                0x0000000080084b18                D_80084B18 = 0x80084b18
                0x0000000080084b1c                D_80084B1C = 0x80084b1c
                0x0000000080084b20                D_80084B20 = 0x80084b20
                0x0000000080084b24                D_80084B24 = 0x80084b24
                0x0000000080084b28                D_80084B28 = 0x80084b28
                0x0000000080084b2c                D_80084B2C = 0x80084b2c
                0x0000000080084b30                D_80084B30 = 0x80084b30
                0x0000000080084b34                D_80084B34 = 0x80084b34
                0x0000000080084b38                D_80084B38 = 0x80084b38
                0x0000000080084b3c                D_80084B3C = 0x80084b3c
                0x0000000080084b40                D_80084B40 = 0x80084b40
                0x0000000080084b44                D_80084B44 = 0x80084b44
                0x0000000080084b48                D_80084B48 = 0x80084b48
                0x0000000080084b60                D_80084B60 = 0x80084b60
                0x0000000080084b64                D_80084B64 = 0x80084b64
                0x0000000080084b68                D_80084B68 = 0x80084b68
                0x0000000080084b6c                D_80084B6C = 0x80084b6c
                0x0000000080084b70                D_80084B70 = 0x80084b70
                0x0000000080084b74                D_80084B74 = 0x80084b74
                0x0000000080084b78                D_80084B78 = 0x80084b78
                0x0000000080084b7c                D_80084B7C = 0x80084b7c
                0x0000000080084b80                D_80084B80 = 0x80084b80
                0x0000000080085280                D_80085280 = 0x80085280
                0x0000000080085290                D_80085290 = 0x80085290
                0x0000000080085950                D_80085950 = 0x80085950
                0x0000000080085958                D_80085958 = 0x80085958
                0x0000000080085968                D_80085968 = 0x80085968
                0x0000000080085988                D_80085988 = 0x80085988
                0x00000000800859a8                D_800859A8 = 0x800859a8
                0x00000000800859b0                D_800859B0 = 0x800859b0
                0x00000000800859b8                D_800859B8 = 0x800859b8
                0x0000000080085a78                D_80085A78 = 0x80085a78
                0x0000000080085a98                D_80085A98 = 0x80085a98
                0x0000000080085aa8                D_80085AA8 = 0x80085aa8
                0x0000000080085ab0                D_80085AB0 = 0x80085ab0
                0x0000000080085abc                D_80085ABC = 0x80085abc
                0x0000000080085ac0                D_80085AC0 = 0x80085ac0
                0x0000000080085ac8                D_80085AC8 = 0x80085ac8
                0x0000000080085acc                D_80085ACC = 0x80085acc
                0x0000000080085b80                D_80085B80 = 0x80085b80
                0x0000000080085c00                D_80085C00 = 0x80085c00
                0x0000000080085c08                D_80085C08 = 0x80085c08
                0x0000000080085c10                D_80085C10 = 0x80085c10
                0x0000000080085c14                D_80085C14 = 0x80085c14
                0x0000000080085c20                D_80085C20 = 0x80085c20
                0x0000000080085c3c                D_80085C3C = 0x80085c3c
                0x0000000080085c40                D_80085C40 = 0x80085c40
                0x0000000080085cac                D_80085CAC = 0x80085cac
                0x0000000080085cb0                D_80085CB0 = 0x80085cb0
                0x0000000080085cb4                D_80085CB4 = 0x80085cb4
                0x0000000080085cb8                D_80085CB8 = 0x80085cb8
                0x0000000080085e48                D_80085E48 = 0x80085e48
                0x0000000080085e4c                D_80085E4C = 0x80085e4c
                0x0000000080085e50                D_80085E50 = 0x80085e50
                0x0000000080085e54                D_80085E54 = 0x80085e54
                0x0000000080085e58                D_80085E58 = 0x80085e58
                0x0000000080085e5c                D_80085E5C = 0x80085e5c
                0x0000000080085e60                D_80085E60 = 0x80085e60
                0x0000000080085e64                D_80085E64 = 0x80085e64
                0x0000000080085e68                D_80085E68 = 0x80085e68
                0x0000000080085e6c                D_80085E6C = 0x80085e6c
                0x0000000080085e70                D_80085E70 = 0x80085e70
                0x0000000080085e74                D_80085E74 = 0x80085e74
                0x0000000080085e78                D_80085E78 = 0x80085e78
                0x0000000080085e7c                D_80085E7C = 0x80085e7c
                0x0000000080085e80                D_80085E80 = 0x80085e80
                0x0000000080085e84                D_80085E84 = 0x80085e84
                0x0000000080085e88                D_80085E88 = 0x80085e88
                0x0000000080085e8c                D_80085E8C = 0x80085e8c
                0x0000000080085e90                D_80085E90 = 0x80085e90
                0x0000000080085e94                D_80085E94 = 0x80085e94
                0x0000000080085e98                D_80085E98 = 0x80085e98
                0x0000000080085e9c                D_80085E9C = 0x80085e9c
                0x0000000080085ea0                D_80085EA0 = 0x80085ea0
                0x0000000080085ea4                D_80085EA4 = 0x80085ea4
                0x0000000080085ea8                D_80085EA8 = 0x80085ea8
                0x0000000080085eac                D_80085EAC = 0x80085eac
                0x0000000080085eb0                D_80085EB0 = 0x80085eb0
                0x0000000080085eb4                D_80085EB4 = 0x80085eb4
                0x0000000080085eb8                D_80085EB8 = 0x80085eb8
                0x0000000080085ebc                D_80085EBC = 0x80085ebc
                0x0000000080085ec0                D_80085EC0 = 0x80085ec0
                0x0000000080085ec4                D_80085EC4 = 0x80085ec4
                0x0000000080085ec8                D_80085EC8 = 0x80085ec8
                0x0000000080085ecc                D_80085ECC = 0x80085ecc
                0x0000000080085ed0                D_80085ED0 = 0x80085ed0
                0x0000000080085f10                D_80085F10 = 0x80085f10
                0x0000000080085f50                D_80085F50 = 0x80085f50
                0x0000000080085f54                D_80085F54 = 0x80085f54
                0x0000000080085f58                D_80085F58 = 0x80085f58
                0x0000000080085f5c                D_80085F5C = 0x80085f5c
                0x0000000080085f60                D_80085F60 = 0x80085f60
                0x0000000080085f64                D_80085F64 = 0x80085f64
                0x0000000080085f68                D_80085F68 = 0x80085f68
                0x0000000080085f78                D_80085F78 = 0x80085f78
                0x0000000080085f84                D_80085F84 = 0x80085f84
                0x0000000080085f88                D_80085F88 = 0x80085f88
                0x0000000080085f90                D_80085F90 = 0x80085f90
                0x0000000080085f94                D_80085F94 = 0x80085f94
                0x0000000080085f98                D_80085F98 = 0x80085f98
                0x0000000080085f9c                D_80085F9C = 0x80085f9c
                0x0000000080086358                D_80086358 = 0x80086358
                0x0000000080086370                D_80086370 = 0x80086370
                0x0000000080086388                D_80086388 = 0x80086388
                0x00000000800863a0                D_800863A0 = 0x800863a0
                0x00000000800863b8                D_800863B8 = 0x800863b8
                0x00000000800863bc                D_800863BC = 0x800863bc
                0x00000000800863c4                D_800863C4 = 0x800863c4
                0x00000000800863c8                D_800863C8 = 0x800863c8
                0x00000000800863cc                D_800863CC = 0x800863cc
                0x00000000800863f0                D_800863F0 = 0x800863f0
                0x00000000800863f4                D_800863F4 = 0x800863f4
                0x00000000800863f8                D_800863F8 = 0x800863f8
                0x0000000080086400                D_80086400 = 0x80086400
                0x0000000080086440                D_80086440 = 0x80086440
                0x0000000080086500                D_80086500 = 0x80086500
                0x00000000800865c0                D_800865C0 = 0x800865c0
                0x00000000800865cc                D_800865CC = 0x800865cc
                0x00000000800865dc                D_800865DC = 0x800865dc
                0x00000000800865e8                D_800865E8 = 0x800865e8
                0x00000000800865f8                D_800865F8 = 0x800865f8
                0x00000000800866d8                D_800866D8 = 0x800866d8
                0x0000000080086798                D_80086798 = 0x80086798
                0x0000000080087298                D_80087298 = 0x80087298
                0x0000000080087798                D_80087798 = 0x80087798
                0x000000008008779c                D_8008779C = 0x8008779c
                0x00000000800877a0                D_800877A0 = 0x800877a0
                0x00000000800877a4                D_800877A4 = 0x800877a4
                0x00000000800877a8                D_800877A8 = 0x800877a8
                0x000000008008793c                D_8008793C = 0x8008793c
                0x0000000080087df8                D_80087DF8 = 0x80087df8
                0x0000000080087e00                D_80087E00 = 0x80087e00
                0x0000000080087e10                D_80087E10 = 0x80087e10
                0x0000000080087e30                D_80087E30 = 0x80087e30
                0x0000000080087e38                D_80087E38 = 0x80087e38
                0x000000008008be40                D_8008BE40 = 0x8008be40
                0x000000008008be4c                D_8008BE4C = 0x8008be4c
                0x000000008008be4e                D_8008BE4E = 0x8008be4e
                0x000000008008be50                D_8008BE50 = 0x8008be50
                0x000000008008be52                D_8008BE52 = 0x8008be52
                0x000000008008be54                D_8008BE54 = 0x8008be54
                0x000000008008be56                D_8008BE56 = 0x8008be56
                0x000000008008be58                D_8008BE58 = 0x8008be58
                0x000000008008be5a                D_8008BE5A = 0x8008be5a
                0x000000008008be5c                D_8008BE5C = 0x8008be5c
                0x000000008008be60                D_8008BE60 = 0x8008be60
                0x000000008008be64                D_8008BE64 = 0x8008be64
                0x000000008008be68                D_8008BE68 = 0x8008be68
                0x000000008008be6c                D_8008BE6C = 0x8008be6c
                0x000000008008bf70                D_8008BF70 = 0x8008bf70
                0x000000008008bf90                D_8008BF90 = 0x8008bf90
                0x000000008008bf94                D_8008BF94 = 0x8008bf94
                0x000000008008bf96                D_8008BF96 = 0x8008bf96
                0x000000008008bf98                D_8008BF98 = 0x8008bf98
                0x000000008008bf9c                D_8008BF9C = 0x8008bf9c
                0x000000008008bfa0                D_8008BFA0 = 0x8008bfa0
                0x000000008008bfa4                D_8008BFA4 = 0x8008bfa4
                0x000000008008bfa8                D_8008BFA8 = 0x8008bfa8
                0x000000008008bfac                D_8008BFAC = 0x8008bfac
                0x000000008008bfb0                D_8008BFB0 = 0x8008bfb0
                0x000000008008bfc0                D_8008BFC0 = 0x8008bfc0
                0x000000008008bff0                D_8008BFF0 = 0x8008bff0
                0x000000008008bff8                D_8008BFF8 = 0x8008bff8
                0x000000008008c040                D_8008C040 = 0x8008c040
                0x000000008008c042                D_8008C042 = 0x8008c042
                0x000000008008c044                D_8008C044 = 0x8008c044
                0x000000008008c048                D_8008C048 = 0x8008c048
                0x000000008008c04c                D_8008C04C = 0x8008c04c
                0x000000008008c050                D_8008C050 = 0x8008c050
                0x000000008008c054                D_8008C054 = 0x8008c054
                0x000000008008c058                D_8008C058 = 0x8008c058
                0x000000008008c138                D_8008C138 = 0x8008c138
                0x000000008008c13c                D_8008C13C = 0x8008c13c
                0x000000008008c140                D_8008C140 = 0x8008c140
                0x000000008008c14c                D_8008C14C = 0x8008c14c
                0x000000008008c150                D_8008C150 = 0x8008c150
                0x000000008008c152                D_8008C152 = 0x8008c152
                0x000000008008c154                D_8008C154 = 0x8008c154
                0x000000008008c156                D_8008C156 = 0x8008c156
                0x000000008008c158                D_8008C158 = 0x8008c158
                0x000000008008c15a                D_8008C15A = 0x8008c15a
                0x000000008008c15c                D_8008C15C = 0x8008c15c
                0x000000008008c15e                D_8008C15E = 0x8008c15e
                0x000000008008c160                D_8008C160 = 0x8008c160
                0x000000008008c162                D_8008C162 = 0x8008c162
                0x000000008008c164                D_8008C164 = 0x8008c164
                0x000000008008c168                D_8008C168 = 0x8008c168
                0x000000008008c16c                D_8008C16C = 0x8008c16c
                0x000000008008c170                D_8008C170 = 0x8008c170
                0x000000008008c174                D_8008C174 = 0x8008c174
                0x000000008008c178                D_8008C178 = 0x8008c178
                0x000000008008c17c                D_8008C17C = 0x8008c17c
                0x000000008008c180                D_8008C180 = 0x8008c180
                0x000000008008c190                D_8008C190 = 0x8008c190
                0x000000008008c19c                D_8008C19C = 0x8008c19c
                0x000000008008c1a0                D_8008C1A0 = 0x8008c1a0
                0x000000008008c1a4                D_8008C1A4 = 0x8008c1a4
                0x000000008008c1b0                D_8008C1B0 = 0x8008c1b0
                0x000000008008c1b8                D_8008C1B8 = 0x8008c1b8
                0x000000008008c9b7                D_8008C9B7 = 0x8008c9b7
                0x000000008008c9b8                D_8008C9B8 = 0x8008c9b8
                0x000000008008c9b9                D_8008C9B9 = 0x8008c9b9
                0x000000008008c9c0                D_8008C9C0 = 0x8008c9c0
                0x000000008008ca4d                D_8008CA4D = 0x8008ca4d
                0x000000008008ca4e                D_8008CA4E = 0x8008ca4e
                0x000000008008ca50                D_8008CA50 = 0x8008ca50
                0x000000008008ca58                D_8008CA58 = 0x8008ca58
                0x000000008008ce54                D_8008CE54 = 0x8008ce54
                0x000000008008ce58                D_8008CE58 = 0x8008ce58
                0x000000008008ce5c                D_8008CE5C = 0x8008ce5c
                0x000000008008ce60                D_8008CE60 = 0x8008ce60
                0x000000008008cea0                D_8008CEA0 = 0x8008cea0
                0x000000008008cec0                D_8008CEC0 = 0x8008cec0
                0x000000008008f070                D_8008F070 = 0x8008f070
                0x000000008008f080                D_8008F080 = 0x8008f080
                0x000000008008f084                D_8008F084 = 0x8008f084
                0x000000008008f088                D_8008F088 = 0x8008f088
                0x000000008008f08c                D_8008F08C = 0x8008f08c
                0x000000008008f090                D_8008F090 = 0x8008f090
                0x000000008008f094                D_8008F094 = 0x8008f094
                0x000000008008f098                D_8008F098 = 0x8008f098
                0x000000008008f0a0                D_8008F0A0 = 0x8008f0a0
                0x000000008008f0b8                D_8008F0B8 = 0x8008f0b8
                0x000000008008f0d0                D_8008F0D0 = 0x8008f0d0
                0x000000008008f0d4                D_8008F0D4 = 0x8008f0d4
                0x000000008008f0d8                D_8008F0D8 = 0x8008f0d8
                0x000000008008f3d8                D_8008F3D8 = 0x8008f3d8
                0x000000008008f428                D_8008F428 = 0x8008f428
                0x000000008008f440                D_8008F440 = 0x8008f440
                0x000000008008f450                D_8008F450 = 0x8008f450
                0x000000008008f4a8                D_8008F4A8 = 0x8008f4a8
                0x000000008008f4b4                D_8008F4B4 = 0x8008f4b4
                0x000000008008f4b8                D_8008F4B8 = 0x8008f4b8
                0x000000008008f4bc                D_8008F4BC = 0x8008f4bc
                0x000000008008f4c0                D_8008F4C0 = 0x8008f4c0
                0x000000008008f4c8                D_8008F4C8 = 0x8008f4c8
                0x000000008008f4d8                D_8008F4D8 = 0x8008f4d8
                0x000000008008f4ec                D_8008F4EC = 0x8008f4ec
                0x000000008008f758                D_8008F758 = 0x8008f758
                0x000000008008f75c                D_8008F75C = 0x8008f75c
                0x000000008008f760                D_8008F760 = 0x8008f760
                0x000000008008f764                D_8008F764 = 0x8008f764
                0x000000008008f768                D_8008F768 = 0x8008f768
                0x000000008008f77c                D_8008F77C = 0x8008f77c
                0x000000008008f780                D_8008F780 = 0x8008f780
                0x000000008008f784                D_8008F784 = 0x8008f784
                0x000000008008f788                D_8008F788 = 0x8008f788
                0x000000008008f78c                D_8008F78C = 0x8008f78c
                0x000000008008f790                D_8008F790 = 0x8008f790
                0x000000008008f794                D_8008F794 = 0x8008f794
                0x000000008008f798                D_8008F798 = 0x8008f798
                0x000000008008f79c                D_8008F79C = 0x8008f79c
                0x000000008008f7a0                D_8008F7A0 = 0x8008f7a0
                0x000000008008f7a8                D_8008F7A8 = 0x8008f7a8
                0x000000008008f7c4                D_8008F7C4 = 0x8008f7c4
                0x000000008008f7f0                D_8008F7F0 = 0x8008f7f0
                0x000000008008f944                D_8008F944 = 0x8008f944
                0x000000008008f960                D_8008F960 = 0x8008f960
                0x000000008008fae0                D_8008FAE0 = 0x8008fae0
                0x000000008008fae4                D_8008FAE4 = 0x8008fae4
                0x000000008008faf0                D_8008FAF0 = 0x8008faf0
                0x000000008008faf1                D_8008FAF1 = 0x8008faf1
                0x000000008008faf2                D_8008FAF2 = 0x8008faf2
                0x000000008008faf4                D_8008FAF4 = 0x8008faf4
                0x000000008008faf6                D_8008FAF6 = 0x8008faf6
                0x000000008008faf8                D_8008FAF8 = 0x8008faf8
                0x000000008008fb30                D_8008FB30 = 0x8008fb30
                0x000000008008fb34                D_8008FB34 = 0x8008fb34
                0x000000008008fb38                D_8008FB38 = 0x8008fb38
                0x000000008008fb3c                D_8008FB3C = 0x8008fb3c
                0x000000008008fb3e                D_8008FB3E = 0x8008fb3e
                0x000000008008fb40                D_8008FB40 = 0x8008fb40
                0x000000008008fb44                D_8008FB44 = 0x8008fb44
                0x000000008008fb48                D_8008FB48 = 0x8008fb48
                0x000000008008fb4c                D_8008FB4C = 0x8008fb4c
                0x000000008008fb50                D_8008FB50 = 0x8008fb50
                0x000000008008fb54                D_8008FB54 = 0x8008fb54
                0x000000008008fb58                D_8008FB58 = 0x8008fb58
                0x000000008008fb5c                D_8008FB5C = 0x8008fb5c
                0x000000008008fb60                D_8008FB60 = 0x8008fb60
                0x000000008008fb70                D_8008FB70 = 0x8008fb70
                0x000000008008fb72                D_8008FB72 = 0x8008fb72
                0x000000008008fb73                D_8008FB73 = 0x8008fb73
                0x000000008008fb74                D_8008FB74 = 0x8008fb74
                0x000000008008fb78                D_8008FB78 = 0x8008fb78
                0x000000008008fb79                D_8008FB79 = 0x8008fb79
                0x000000008008fb7a                D_8008FB7A = 0x8008fb7a
                0x000000008008fb7b                D_8008FB7B = 0x8008fb7b
                0x000000008008fb7c                D_8008FB7C = 0x8008fb7c
                0x000000008008fb80                D_8008FB80 = 0x8008fb80
                0x000000008008fb81                D_8008FB81 = 0x8008fb81
                0x000000008008fba0                D_8008FBA0 = 0x8008fba0
                0x000000008008fba8                D_8008FBA8 = 0x8008fba8
                0x0000000080090228                D_80090228 = 0x80090228
                0x0000000080090248                D_80090248 = 0x80090248
                0x0000000080090258                D_80090258 = 0x80090258
                0x00000000800902ef                D_800902EF = 0x800902ef
                0x00000000800902f0                D_800902F0 = 0x800902f0
                0x0000000080090370                D_80090370 = 0x80090370
                0x0000000080090450                D_80090450 = 0x80090450
                0x0000000080090454                D_80090454 = 0x80090454
                0x0000000080090458                D_80090458 = 0x80090458
                0x000000008009045c                D_8009045C = 0x8009045c
                0x0000000080090470                D_80090470 = 0x80090470
                0x00000000800904a8                D_800904A8 = 0x800904a8
                0x00000000800909bc                D_800909BC = 0x800909bc
                0x0000000080090e6c                D_80090E6C = 0x80090e6c
                0x0000000080091868                D_80091868 = 0x80091868
                0x0000000080092264                D_80092264 = 0x80092264
                0x0000000080092c60                D_80092C60 = 0x80092c60
                0x0000000080092c62                D_80092C62 = 0x80092c62
                0x0000000080092c70                D_80092C70 = 0x80092c70
                0x0000000080092c74                D_80092C74 = 0x80092c74
                0x0000000080092c80                D_80092C80 = 0x80092c80
                0x0000000080092c81                D_80092C81 = 0x80092c81
                0x0000000080092c82                D_80092C82 = 0x80092c82
                0x0000000080092c84                D_80092C84 = 0x80092c84
                0x0000000080092c86                D_80092C86 = 0x80092c86
                0x0000000080092c88                D_80092C88 = 0x80092c88
                0x0000000080092c90                D_80092C90 = 0x80092c90
                0x0000000080092ca8                D_80092CA8 = 0x80092ca8
                0x0000000080092e48                D_80092E48 = 0x80092e48
                0x0000000080092e4a                D_80092E4A = 0x80092e4a
                0x0000000080092e98                D_80092E98 = 0x80092e98
                0x0000000080092ea0                D_80092EA0 = 0x80092ea0
                0x0000000080092eb0                D_80092EB0 = 0x80092eb0
                0x0000000080092eb8                D_80092EB8 = 0x80092eb8
                0x0000000080092ed0                D_80092ED0 = 0x80092ed0
                0x0000000080092ed4                D_80092ED4 = 0x80092ed4
                0x0000000080092ed8                D_80092ED8 = 0x80092ed8
                0x0000000080092edc                D_80092EDC = 0x80092edc
                0x0000000080092ee0                D_80092EE0 = 0x80092ee0
                0x0000000080092ee4                D_80092EE4 = 0x80092ee4
                0x0000000080092ee8                D_80092EE8 = 0x80092ee8
                0x0000000080092fe8                D_80092FE8 = 0x80092fe8
                0x0000000080092ff0                D_80092FF0 = 0x80092ff0
                0x0000000080093000                D_80093000 = 0x80093000
                0x0000000080093078                D_80093078 = 0x80093078
                0x00000000800930f0                D_800930F0 = 0x800930f0
                0x00000000800942a0                D_800942A0 = 0x800942a0
                0x00000000800942b8                D_800942B8 = 0x800942b8
                0x00000000800942c0                D_800942C0 = 0x800942c0
                0x0000000080094340                D_80094340 = 0x80094340
                0x0000000080094380                D_80094380 = 0x80094380
                0x0000000080095530                D_80095530 = 0x80095530
                0x0000000080095548                D_80095548 = 0x80095548
                0x0000000080095560                D_80095560 = 0x80095560
                0x0000000080095578                D_80095578 = 0x80095578
                0x0000000080095590                D_80095590 = 0x80095590
                0x00000000800955a0                D_800955A0 = 0x800955a0
                0x00000000800955b0                D_800955B0 = 0x800955b0
                0x00000000800956b0                D_800956B0 = 0x800956b0
                0x00000000800956d0                D_800956D0 = 0x800956d0
                0x00000000800956e8                D_800956E8 = 0x800956e8
                0x00000000800956f0                D_800956F0 = 0x800956f0
                0x000000008009572c                D_8009572C = 0x8009572c
                0x0000000080095730                D_80095730 = 0x80095730
                0x0000000080095731                D_80095731 = 0x80095731
                0x0000000080095758                D_80095758 = 0x80095758
                0x0000000080095770                D_80095770 = 0x80095770
                0x0000000080095780                D_80095780 = 0x80095780
                0x0000000080095788                D_80095788 = 0x80095788
                0x00000000800957c0                D_800957C0 = 0x800957c0
                0x00000000800957c4                D_800957C4 = 0x800957c4
                0x00000000800957c8                D_800957C8 = 0x800957c8
                0x00000000800957cc                D_800957CC = 0x800957cc
                0x00000000800957d0                D_800957D0 = 0x800957d0
                0x00000000800957e0                D_800957E0 = 0x800957e0
                0x00000000800957e8                D_800957E8 = 0x800957e8
                0x0000000080095800                D_80095800 = 0x80095800
                0x0000000080095900                D_80095900 = 0x80095900
                0x0000000080095ab0                D_80095AB0 = 0x80095ab0
                0x0000000080095aec                D_80095AEC = 0x80095aec
                0x0000000080095af0                D_80095AF0 = 0x80095af0
                0x00000000800c0000                D_800C0000 = 0x800c0000
                0x00000000800c03d8                D_800C03D8 = 0x800c03d8
                0x00000000800c185c                D_800C185C = 0x800c185c
                0x00000000800c186e                D_800C186E = 0x800c186e
                0x00000000800c1878                D_800C1878 = 0x800c1878
                0x00000000800c187c                D_800C187C = 0x800c187c
                0x00000000800c18d8                D_800C18D8 = 0x800c18d8
                0x00000000800c3268                D_800C3268 = 0x800c3268
                0x00000000800c363c                D_800C363C = 0x800c363c
                0x00000000800c40c0                D_800C40C0 = 0x800c40c0
                0x00000000800c4780                D_800C4780 = 0x800c4780
                0x00000000800c47c0                D_800C47C0 = 0x800c47c0
                0x00000000800c4840                D_800C4840 = 0x800c4840
                0x00000000800cada8                D_800CADA8 = 0x800cada8
                0x00000000800da0f0                D_800DA0F0 = 0x800da0f0
                0x00000000800eb2b4                D_800EB2B4 = 0x800eb2b4
                0x00000000800eb5e4                D_800EB5E4 = 0x800eb5e4
                0x00000000800eb6d0                D_800EB6D0 = 0x800eb6d0
                0x00000000800eb700                D_800EB700 = 0x800eb700
                0x00000000800eb7c0                D_800EB7C0 = 0x800eb7c0
                0x00000000800eb880                D_800EB880 = 0x800eb880
                0x00000000800eb8e8                D_800EB8E8 = 0x800eb8e8
                0x00000000800eb990                D_800EB990 = 0x800eb990
                0x00000000800eb9c8                D_800EB9C8 = 0x800eb9c8
                0x0000000080100000                D_80100000 = 0x80100000
                0x000000008010fdc4                D_8010FDC4 = 0x8010fdc4
                0x000000008010fe00                D_8010FE00 = 0x8010fe00
                0x0000000080124e22                D_80124E22 = 0x80124e22
                0x0000000080124e24                D_80124E24 = 0x80124e24
                0x00000000801c0000                D_801C0000 = 0x801c0000
                0x00000000801c14e4                D_801C14E4 = 0x801c14e4
                0x00000000801d8620                D_801D8620 = 0x801d8620
                0x00000000801e0000                D_801E0000 = 0x801e0000
                0x0000000080206000                D_80206000 = 0x80206000
                0x000000008020e6f0                D_8020E6F0 = 0x8020e6f0
                0x00000000802a0000                D_802A0000 = 0x802a0000
                0x00000000802a7bc0                D_802A7BC0 = 0x802a7bc0
                0x00000000802da800                D_802DA800 = 0x802da800
                0x0000000080300000                D_80300000 = 0x80300000
                0x0000000080300400                D_80300400 = 0x80300400
                0x0000000080301000                D_80301000 = 0x80301000
                0x0000000080301098                D_80301098 = 0x80301098
                0x0000000080309000                D_80309000 = 0x80309000
                0x000000008030ead0                D_8030EAD0 = 0x8030ead0
                0x000000008030eb68                D_8030EB68 = 0x8030eb68
                0x000000008031c5a0                D_8031C5A0 = 0x8031c5a0
                0x00000000803245a0                D_803245A0 = 0x803245a0
                0x0000000080332d30                D_80332D30 = 0x80332d30
                0x0000000080332db0                D_80332DB0 = 0x80332db0
                0x000000008039adb0                D_8039ADB0 = 0x8039adb0
                0x000000008039afb0                D_8039AFB0 = 0x8039afb0
                0x000000008039e290                D_8039E290 = 0x8039e290
                0x000000008039ec90                D_8039EC90 = 0x8039ec90
                0x00000000803a4118                D_803A4118 = 0x803a4118
                0x00000000803a86f8                D_803A86F8 = 0x803a86f8
                0x00000000803a8718                D_803A8718 = 0x803a8718
                0x00000000803a8728                D_803A8728 = 0x803a8728
                0x00000000803a8748                D_803A8748 = 0x803a8748
                0x00000000803a8778                D_803A8778 = 0x803a8778
                0x00000000803a8788                D_803A8788 = 0x803a8788
                0x00000000803aa2f8                D_803AA2F8 = 0x803aa2f8
                0x00000000803aa3c8                D_803AA3C8 = 0x803aa3c8
                0x00000000803aa448                D_803AA448 = 0x803aa448
                0x00000000803aa4c0                D_803AA4C0 = 0x803aa4c0
                0x00000000803aa538                D_803AA538 = 0x803aa538
                0x00000000803aa5b0                D_803AA5B0 = 0x803aa5b0
                0x00000000803aa628                D_803AA628 = 0x803aa628
                0x00000000803aa690                D_803AA690 = 0x803aa690
                0x00000000803aa6c4                D_803AA6C4 = 0x803aa6c4
                0x00000000803aa758                D_803AA758 = 0x803aa758
                0x00000000803aa7c0                D_803AA7C0 = 0x803aa7c0
                0x00000000803aa828                D_803AA828 = 0x803aa828
                0x00000000803aa8a8                D_803AA8A8 = 0x803aa8a8
                0x00000000803aa940                D_803AA940 = 0x803aa940
                0x00000000803aa998                D_803AA998 = 0x803aa998
                0x00000000803aa9f0                D_803AA9F0 = 0x803aa9f0
                0x00000000803aaa40                D_803AAA40 = 0x803aaa40
                0x00000000803aaaa0                D_803AAAA0 = 0x803aaaa0
                0x00000000803aaaa2                D_803AAAA2 = 0x803aaaa2
                0x00000000803ab288                D_803AB288 = 0x803ab288
                0x00000000803ab2f0                D_803AB2F0 = 0x803ab2f0
                0x00000000803ab358                D_803AB358 = 0x803ab358
                0x00000000803ab36c                D_803AB36C = 0x803ab36c
                0x00000000803ab390                D_803AB390 = 0x803ab390
                0x00000000803ab3d0                D_803AB3D0 = 0x803ab3d0
                0x00000000803ab48c                D_803AB48C = 0x803ab48c
                0x00000000803ab4b0                D_803AB4B0 = 0x803ab4b0
                0x00000000803ab820                D_803AB820 = 0x803ab820
                0x00000000803ab9a8                D_803AB9A8 = 0x803ab9a8
                0x00000000803aba58                D_803ABA58 = 0x803aba58
                0x00000000803ac328                D_803AC328 = 0x803ac328
                0x00000000803ac3f8                D_803AC3F8 = 0x803ac3f8
                0x00000000803ac418                D_803AC418 = 0x803ac418
                0x00000000803ac438                D_803AC438 = 0x803ac438
                0x00000000803ac460                D_803AC460 = 0x803ac460
                0x00000000803ac660                D_803AC660 = 0x803ac660
                0x00000000803b5000                D_803B5000 = 0x803b5000
                0x00000000803da800                D_803DA800 = 0x803da800
                0x00000000a0000000                D_A0000000 = 0xa0000000
                0x00000000a4040000                D_A4040000 = 0xa4040000
                0x00000000a4040004                D_A4040004 = 0xa4040004
                0x00000000a4040008                D_A4040008 = 0xa4040008
                0x00000000a404000c                D_A404000C = 0xa404000c
                0x00000000a4040010                D_A4040010 = 0xa4040010
                0x00000000a4080000                D_A4080000 = 0xa4080000
                0x00000000a4300000                D_A4300000 = 0xa4300000
                0x00000000a4300008                D_A4300008 = 0xa4300008
                0x00000000a430000c                D_A430000C = 0xa430000c
                0x00000000a4400000                D_A4400000 = 0xa4400000
                0x00000000a4400004                D_A4400004 = 0xa4400004
                0x00000000a4400008                D_A4400008 = 0xa4400008
                0x00000000a440000c                D_A440000C = 0xa440000c
                0x00000000a4400010                D_A4400010 = 0xa4400010
                0x00000000a4400014                D_A4400014 = 0xa4400014
                0x00000000a4400018                D_A4400018 = 0xa4400018
                0x00000000a440001c                D_A440001C = 0xa440001c
                0x00000000a4400020                D_A4400020 = 0xa4400020
                0x00000000a4400024                D_A4400024 = 0xa4400024
                0x00000000a4400028                D_A4400028 = 0xa4400028
                0x00000000a440002c                D_A440002C = 0xa440002c
                0x00000000a4400030                D_A4400030 = 0xa4400030
                0x00000000a4400034                D_A4400034 = 0xa4400034
                0x00000000a4500000                D_A4500000 = 0xa4500000
                0x00000000a4500004                D_A4500004 = 0xa4500004
                0x00000000a4500008                D_A4500008 = 0xa4500008
                0x00000000a450000c                D_A450000C = 0xa450000c
                0x00000000a4500010                D_A4500010 = 0xa4500010
                0x00000000a4500014                D_A4500014 = 0xa4500014
                0x00000000a4600000                D_A4600000 = 0xa4600000
                0x00000000a4600004                D_A4600004 = 0xa4600004
                0x00000000a4600008                D_A4600008 = 0xa4600008
                0x00000000a460000c                D_A460000C = 0xa460000c
                0x00000000a4600010                D_A4600010 = 0xa4600010
                0x00000000a4600014                D_A4600014 = 0xa4600014
                0x00000000a4600018                D_A4600018 = 0xa4600018
                0x00000000a460001c                D_A460001C = 0xa460001c
                0x00000000a4600020                D_A4600020 = 0xa4600020
                0x00000000a4600024                D_A4600024 = 0xa4600024
                0x00000000a4600028                D_A4600028 = 0xa4600028
                0x00000000a460002c                D_A460002C = 0xa460002c
                0x00000000a4600030                D_A4600030 = 0xa4600030
                0x00000000a4800000                D_A4800000 = 0xa4800000
                0x00000000a4800004                D_A4800004 = 0xa4800004
                0x00000000a4800010                D_A4800010 = 0xa4800010
                0x00000000a4800018                D_A4800018 = 0xa4800018
                0x00000000801009ec                func_801009EC = 0x801009ec
                0x000000008020c0d0                func_8020C0D0 = 0x8020c0d0
                0x000000008020c11c                func_8020C11C = 0x8020c11c
                0x000000008020c15c                func_8020C15C = 0x8020c15c
                0x000000008020c16c                func_8020C16C = 0x8020c16c
OUTPUT(build/eltail.jp.elf elf32-tradbigmips)
